   1              		.syntax unified
   2              		.cpu cortex-m4
   3              		.fpu softvfp
   4              		.eabi_attribute 20, 1
   5              		.eabi_attribute 21, 1
   6              		.eabi_attribute 23, 3
   7              		.eabi_attribute 24, 1
   8              		.eabi_attribute 25, 1
   9              		.eabi_attribute 26, 1
  10              		.eabi_attribute 30, 6
  11              		.eabi_attribute 34, 1
  12              		.eabi_attribute 18, 4
  13              		.thumb
  14              		.file	"usb_core.c"
  15              		.text
  16              	.Ltext0:
  17              		.cfi_sections	.debug_frame
  18              		.align	2
  19              		.thumb
  20              		.thumb_func
  22              	USB_OTG_EnableCommonInt:
  23              	.LFB110:
  24              		.file 1 "../Libraries/STM32_USB_OTG_Driver/src/usb_core.c"
   1:../Libraries/STM32_USB_OTG_Driver/src/usb_core.c **** /**
   2:../Libraries/STM32_USB_OTG_Driver/src/usb_core.c ****   ******************************************************************************
   3:../Libraries/STM32_USB_OTG_Driver/src/usb_core.c ****   * @file    usb_core.c
   4:../Libraries/STM32_USB_OTG_Driver/src/usb_core.c ****   * @author  MCD Application Team
   5:../Libraries/STM32_USB_OTG_Driver/src/usb_core.c ****   * @version V2.1.0
   6:../Libraries/STM32_USB_OTG_Driver/src/usb_core.c ****   * @date    19-March-2012
   7:../Libraries/STM32_USB_OTG_Driver/src/usb_core.c ****   * @brief   USB-OTG Core Layer
   8:../Libraries/STM32_USB_OTG_Driver/src/usb_core.c ****   ******************************************************************************
   9:../Libraries/STM32_USB_OTG_Driver/src/usb_core.c ****   * @attention
  10:../Libraries/STM32_USB_OTG_Driver/src/usb_core.c ****   *
  11:../Libraries/STM32_USB_OTG_Driver/src/usb_core.c ****   * <h2><center>&copy; COPYRIGHT 2012 STMicroelectronics</center></h2>
  12:../Libraries/STM32_USB_OTG_Driver/src/usb_core.c ****   *
  13:../Libraries/STM32_USB_OTG_Driver/src/usb_core.c ****   * Licensed under MCD-ST Liberty SW License Agreement V2, (the "License");
  14:../Libraries/STM32_USB_OTG_Driver/src/usb_core.c ****   * You may not use this file except in compliance with the License.
  15:../Libraries/STM32_USB_OTG_Driver/src/usb_core.c ****   * You may obtain a copy of the License at:
  16:../Libraries/STM32_USB_OTG_Driver/src/usb_core.c ****   *
  17:../Libraries/STM32_USB_OTG_Driver/src/usb_core.c ****   *        http://www.st.com/software_license_agreement_liberty_v2
  18:../Libraries/STM32_USB_OTG_Driver/src/usb_core.c ****   *
  19:../Libraries/STM32_USB_OTG_Driver/src/usb_core.c ****   * Unless required by applicable law or agreed to in writing, software 
  20:../Libraries/STM32_USB_OTG_Driver/src/usb_core.c ****   * distributed under the License is distributed on an "AS IS" BASIS, 
  21:../Libraries/STM32_USB_OTG_Driver/src/usb_core.c ****   * WITHOUT WARRANTIES OR CONDITIONS OF ANY KIND, either express or implied.
  22:../Libraries/STM32_USB_OTG_Driver/src/usb_core.c ****   * See the License for the specific language governing permissions and
  23:../Libraries/STM32_USB_OTG_Driver/src/usb_core.c ****   * limitations under the License.
  24:../Libraries/STM32_USB_OTG_Driver/src/usb_core.c ****   *
  25:../Libraries/STM32_USB_OTG_Driver/src/usb_core.c ****   ******************************************************************************
  26:../Libraries/STM32_USB_OTG_Driver/src/usb_core.c ****   */
  27:../Libraries/STM32_USB_OTG_Driver/src/usb_core.c **** 
  28:../Libraries/STM32_USB_OTG_Driver/src/usb_core.c **** /* Includes ------------------------------------------------------------------*/
  29:../Libraries/STM32_USB_OTG_Driver/src/usb_core.c **** #include "usb_core.h"
  30:../Libraries/STM32_USB_OTG_Driver/src/usb_core.c **** #include "usb_bsp.h"
  31:../Libraries/STM32_USB_OTG_Driver/src/usb_core.c **** 
  32:../Libraries/STM32_USB_OTG_Driver/src/usb_core.c **** 
  33:../Libraries/STM32_USB_OTG_Driver/src/usb_core.c **** /** @addtogroup USB_OTG_DRIVER
  34:../Libraries/STM32_USB_OTG_Driver/src/usb_core.c **** * @{
  35:../Libraries/STM32_USB_OTG_Driver/src/usb_core.c **** */
  36:../Libraries/STM32_USB_OTG_Driver/src/usb_core.c **** 
  37:../Libraries/STM32_USB_OTG_Driver/src/usb_core.c **** /** @defgroup USB_CORE 
  38:../Libraries/STM32_USB_OTG_Driver/src/usb_core.c **** * @brief This file includes the USB-OTG Core Layer
  39:../Libraries/STM32_USB_OTG_Driver/src/usb_core.c **** * @{
  40:../Libraries/STM32_USB_OTG_Driver/src/usb_core.c **** */
  41:../Libraries/STM32_USB_OTG_Driver/src/usb_core.c **** 
  42:../Libraries/STM32_USB_OTG_Driver/src/usb_core.c **** 
  43:../Libraries/STM32_USB_OTG_Driver/src/usb_core.c **** /** @defgroup USB_CORE_Private_Defines
  44:../Libraries/STM32_USB_OTG_Driver/src/usb_core.c **** * @{
  45:../Libraries/STM32_USB_OTG_Driver/src/usb_core.c **** */ 
  46:../Libraries/STM32_USB_OTG_Driver/src/usb_core.c **** 
  47:../Libraries/STM32_USB_OTG_Driver/src/usb_core.c **** /**
  48:../Libraries/STM32_USB_OTG_Driver/src/usb_core.c **** * @}
  49:../Libraries/STM32_USB_OTG_Driver/src/usb_core.c **** */ 
  50:../Libraries/STM32_USB_OTG_Driver/src/usb_core.c **** 
  51:../Libraries/STM32_USB_OTG_Driver/src/usb_core.c **** 
  52:../Libraries/STM32_USB_OTG_Driver/src/usb_core.c **** /** @defgroup USB_CORE_Private_TypesDefinitions
  53:../Libraries/STM32_USB_OTG_Driver/src/usb_core.c **** * @{
  54:../Libraries/STM32_USB_OTG_Driver/src/usb_core.c **** */ 
  55:../Libraries/STM32_USB_OTG_Driver/src/usb_core.c **** /**
  56:../Libraries/STM32_USB_OTG_Driver/src/usb_core.c **** * @}
  57:../Libraries/STM32_USB_OTG_Driver/src/usb_core.c **** */ 
  58:../Libraries/STM32_USB_OTG_Driver/src/usb_core.c **** 
  59:../Libraries/STM32_USB_OTG_Driver/src/usb_core.c **** 
  60:../Libraries/STM32_USB_OTG_Driver/src/usb_core.c **** 
  61:../Libraries/STM32_USB_OTG_Driver/src/usb_core.c **** /** @defgroup USB_CORE_Private_Macros
  62:../Libraries/STM32_USB_OTG_Driver/src/usb_core.c **** * @{
  63:../Libraries/STM32_USB_OTG_Driver/src/usb_core.c **** */ 
  64:../Libraries/STM32_USB_OTG_Driver/src/usb_core.c **** /**
  65:../Libraries/STM32_USB_OTG_Driver/src/usb_core.c **** * @}
  66:../Libraries/STM32_USB_OTG_Driver/src/usb_core.c **** */ 
  67:../Libraries/STM32_USB_OTG_Driver/src/usb_core.c **** 
  68:../Libraries/STM32_USB_OTG_Driver/src/usb_core.c **** 
  69:../Libraries/STM32_USB_OTG_Driver/src/usb_core.c **** /** @defgroup USB_CORE_Private_Variables
  70:../Libraries/STM32_USB_OTG_Driver/src/usb_core.c **** * @{
  71:../Libraries/STM32_USB_OTG_Driver/src/usb_core.c **** */ 
  72:../Libraries/STM32_USB_OTG_Driver/src/usb_core.c **** /**
  73:../Libraries/STM32_USB_OTG_Driver/src/usb_core.c **** * @}
  74:../Libraries/STM32_USB_OTG_Driver/src/usb_core.c **** */ 
  75:../Libraries/STM32_USB_OTG_Driver/src/usb_core.c **** 
  76:../Libraries/STM32_USB_OTG_Driver/src/usb_core.c **** 
  77:../Libraries/STM32_USB_OTG_Driver/src/usb_core.c **** /** @defgroup USB_CORE_Private_FunctionPrototypes
  78:../Libraries/STM32_USB_OTG_Driver/src/usb_core.c **** * @{
  79:../Libraries/STM32_USB_OTG_Driver/src/usb_core.c **** */ 
  80:../Libraries/STM32_USB_OTG_Driver/src/usb_core.c **** /**
  81:../Libraries/STM32_USB_OTG_Driver/src/usb_core.c **** * @}
  82:../Libraries/STM32_USB_OTG_Driver/src/usb_core.c **** */ 
  83:../Libraries/STM32_USB_OTG_Driver/src/usb_core.c **** 
  84:../Libraries/STM32_USB_OTG_Driver/src/usb_core.c **** 
  85:../Libraries/STM32_USB_OTG_Driver/src/usb_core.c **** /** @defgroup USB_CORE_Private_Functions
  86:../Libraries/STM32_USB_OTG_Driver/src/usb_core.c **** * @{
  87:../Libraries/STM32_USB_OTG_Driver/src/usb_core.c **** */ 
  88:../Libraries/STM32_USB_OTG_Driver/src/usb_core.c **** 
  89:../Libraries/STM32_USB_OTG_Driver/src/usb_core.c **** /**
  90:../Libraries/STM32_USB_OTG_Driver/src/usb_core.c **** * @brief  USB_OTG_EnableCommonInt
  91:../Libraries/STM32_USB_OTG_Driver/src/usb_core.c **** *         Initializes the commmon interrupts, used in both device and modes
  92:../Libraries/STM32_USB_OTG_Driver/src/usb_core.c **** * @param  pdev : Selected device
  93:../Libraries/STM32_USB_OTG_Driver/src/usb_core.c **** * @retval None
  94:../Libraries/STM32_USB_OTG_Driver/src/usb_core.c **** */
  95:../Libraries/STM32_USB_OTG_Driver/src/usb_core.c **** static void USB_OTG_EnableCommonInt(USB_OTG_CORE_HANDLE *pdev)
  96:../Libraries/STM32_USB_OTG_Driver/src/usb_core.c **** {
  25              		.loc 1 96 0
  26              		.cfi_startproc
  27              		@ args = 0, pretend = 0, frame = 16
  28              		@ frame_needed = 1, uses_anonymous_args = 0
  29              		@ link register save eliminated.
  30 0000 80B4     		push	{r7}
  31              	.LCFI0:
  32              		.cfi_def_cfa_offset 4
  33              		.cfi_offset 7, -4
  34 0002 85B0     		sub	sp, sp, #20
  35              	.LCFI1:
  36              		.cfi_def_cfa_offset 24
  37 0004 00AF     		add	r7, sp, #0
  38              	.LCFI2:
  39              		.cfi_def_cfa_register 7
  40 0006 7860     		str	r0, [r7, #4]
  97:../Libraries/STM32_USB_OTG_Driver/src/usb_core.c ****   USB_OTG_GINTMSK_TypeDef  int_mask;
  98:../Libraries/STM32_USB_OTG_Driver/src/usb_core.c ****   
  99:../Libraries/STM32_USB_OTG_Driver/src/usb_core.c ****   int_mask.d32 = 0;
  41              		.loc 1 99 0
  42 0008 4FF00003 		mov	r3, #0
  43 000c FB60     		str	r3, [r7, #12]
 100:../Libraries/STM32_USB_OTG_Driver/src/usb_core.c ****   /* Clear any pending USB_OTG Interrupts */
 101:../Libraries/STM32_USB_OTG_Driver/src/usb_core.c **** #ifndef USE_OTG_MODE
 102:../Libraries/STM32_USB_OTG_Driver/src/usb_core.c ****   USB_OTG_WRITE_REG32( &pdev->regs.GREGS->GOTGINT, 0xFFFFFFFF);
  44              		.loc 1 102 0
  45 000e 7B68     		ldr	r3, [r7, #4]
  46 0010 DB68     		ldr	r3, [r3, #12]
  47 0012 4FF0FF32 		mov	r2, #-1
  48 0016 5A60     		str	r2, [r3, #4]
 103:../Libraries/STM32_USB_OTG_Driver/src/usb_core.c **** #endif
 104:../Libraries/STM32_USB_OTG_Driver/src/usb_core.c ****   /* Clear any pending interrupts */
 105:../Libraries/STM32_USB_OTG_Driver/src/usb_core.c ****   USB_OTG_WRITE_REG32( &pdev->regs.GREGS->GINTSTS, 0xBFFFFFFF);
  49              		.loc 1 105 0
  50 0018 7B68     		ldr	r3, [r7, #4]
  51 001a DB68     		ldr	r3, [r3, #12]
  52 001c 6FF08042 		mvn	r2, #1073741824
  53 0020 5A61     		str	r2, [r3, #20]
 106:../Libraries/STM32_USB_OTG_Driver/src/usb_core.c ****   /* Enable the interrupts in the INTMSK */
 107:../Libraries/STM32_USB_OTG_Driver/src/usb_core.c ****   int_mask.b.wkupintr = 1;
  54              		.loc 1 107 0
  55 0022 FB68     		ldr	r3, [r7, #12]
  56 0024 43F00043 		orr	r3, r3, #-2147483648
  57 0028 FB60     		str	r3, [r7, #12]
 108:../Libraries/STM32_USB_OTG_Driver/src/usb_core.c ****   int_mask.b.usbsuspend = 1; 
  58              		.loc 1 108 0
  59 002a FB68     		ldr	r3, [r7, #12]
  60 002c 43F40063 		orr	r3, r3, #2048
  61 0030 FB60     		str	r3, [r7, #12]
 109:../Libraries/STM32_USB_OTG_Driver/src/usb_core.c ****   
 110:../Libraries/STM32_USB_OTG_Driver/src/usb_core.c **** #ifdef USE_OTG_MODE
 111:../Libraries/STM32_USB_OTG_Driver/src/usb_core.c ****   int_mask.b.otgintr = 1;
 112:../Libraries/STM32_USB_OTG_Driver/src/usb_core.c ****   int_mask.b.sessreqintr = 1;
 113:../Libraries/STM32_USB_OTG_Driver/src/usb_core.c ****   int_mask.b.conidstschng = 1;
 114:../Libraries/STM32_USB_OTG_Driver/src/usb_core.c **** #endif
 115:../Libraries/STM32_USB_OTG_Driver/src/usb_core.c ****   USB_OTG_WRITE_REG32( &pdev->regs.GREGS->GINTMSK, int_mask.d32);
  62              		.loc 1 115 0
  63 0032 7B68     		ldr	r3, [r7, #4]
  64 0034 DB68     		ldr	r3, [r3, #12]
  65 0036 FA68     		ldr	r2, [r7, #12]
  66 0038 9A61     		str	r2, [r3, #24]
 116:../Libraries/STM32_USB_OTG_Driver/src/usb_core.c **** }
  67              		.loc 1 116 0
  68 003a 07F11407 		add	r7, r7, #20
  69 003e BD46     		mov	sp, r7
  70 0040 80BC     		pop	{r7}
  71 0042 7047     		bx	lr
  72              		.cfi_endproc
  73              	.LFE110:
  75              		.align	2
  76              		.thumb
  77              		.thumb_func
  79              	USB_OTG_CoreReset:
  80              	.LFB111:
 117:../Libraries/STM32_USB_OTG_Driver/src/usb_core.c **** 
 118:../Libraries/STM32_USB_OTG_Driver/src/usb_core.c **** /**
 119:../Libraries/STM32_USB_OTG_Driver/src/usb_core.c **** * @brief  USB_OTG_CoreReset : Soft reset of the core
 120:../Libraries/STM32_USB_OTG_Driver/src/usb_core.c **** * @param  pdev : Selected device
 121:../Libraries/STM32_USB_OTG_Driver/src/usb_core.c **** * @retval USB_OTG_STS : status
 122:../Libraries/STM32_USB_OTG_Driver/src/usb_core.c **** */
 123:../Libraries/STM32_USB_OTG_Driver/src/usb_core.c **** static USB_OTG_STS USB_OTG_CoreReset(USB_OTG_CORE_HANDLE *pdev)
 124:../Libraries/STM32_USB_OTG_Driver/src/usb_core.c **** {
  81              		.loc 1 124 0
  82              		.cfi_startproc
  83              		@ args = 0, pretend = 0, frame = 24
  84              		@ frame_needed = 1, uses_anonymous_args = 0
  85 0044 80B5     		push	{r7, lr}
  86              	.LCFI3:
  87              		.cfi_def_cfa_offset 8
  88              		.cfi_offset 7, -8
  89              		.cfi_offset 14, -4
  90 0046 86B0     		sub	sp, sp, #24
  91              	.LCFI4:
  92              		.cfi_def_cfa_offset 32
  93 0048 00AF     		add	r7, sp, #0
  94              	.LCFI5:
  95              		.cfi_def_cfa_register 7
  96 004a 7860     		str	r0, [r7, #4]
 125:../Libraries/STM32_USB_OTG_Driver/src/usb_core.c ****   USB_OTG_STS status = USB_OTG_OK;
  97              		.loc 1 125 0
  98 004c 4FF00003 		mov	r3, #0
  99 0050 FB74     		strb	r3, [r7, #19]
 126:../Libraries/STM32_USB_OTG_Driver/src/usb_core.c ****   __IO USB_OTG_GRSTCTL_TypeDef  greset;
 127:../Libraries/STM32_USB_OTG_Driver/src/usb_core.c ****   uint32_t count = 0;
 100              		.loc 1 127 0
 101 0052 4FF00003 		mov	r3, #0
 102 0056 7B61     		str	r3, [r7, #20]
 128:../Libraries/STM32_USB_OTG_Driver/src/usb_core.c ****   
 129:../Libraries/STM32_USB_OTG_Driver/src/usb_core.c ****   greset.d32 = 0;
 103              		.loc 1 129 0
 104 0058 4FF00003 		mov	r3, #0
 105 005c FB60     		str	r3, [r7, #12]
 106              	.L5:
 130:../Libraries/STM32_USB_OTG_Driver/src/usb_core.c ****   /* Wait for AHB master IDLE state. */
 131:../Libraries/STM32_USB_OTG_Driver/src/usb_core.c ****   do
 132:../Libraries/STM32_USB_OTG_Driver/src/usb_core.c ****   {
 133:../Libraries/STM32_USB_OTG_Driver/src/usb_core.c ****     USB_OTG_BSP_uDelay(3);
 107              		.loc 1 133 0
 108 005e 4FF00300 		mov	r0, #3
 109 0062 FFF7FEFF 		bl	USB_OTG_BSP_uDelay
 134:../Libraries/STM32_USB_OTG_Driver/src/usb_core.c ****     greset.d32 = USB_OTG_READ_REG32(&pdev->regs.GREGS->GRSTCTL);
 110              		.loc 1 134 0
 111 0066 7B68     		ldr	r3, [r7, #4]
 112 0068 DB68     		ldr	r3, [r3, #12]
 113 006a 1B69     		ldr	r3, [r3, #16]
 114 006c FB60     		str	r3, [r7, #12]
 135:../Libraries/STM32_USB_OTG_Driver/src/usb_core.c ****     if (++count > 200000)
 115              		.loc 1 135 0
 116 006e 7B69     		ldr	r3, [r7, #20]
 117 0070 03F10103 		add	r3, r3, #1
 118 0074 7B61     		str	r3, [r7, #20]
 119 0076 7A69     		ldr	r2, [r7, #20]
 120 0078 1A4B     		ldr	r3, .L10
 121 007a 9A42     		cmp	r2, r3
 122 007c 02D9     		bls	.L3
 136:../Libraries/STM32_USB_OTG_Driver/src/usb_core.c ****     {
 137:../Libraries/STM32_USB_OTG_Driver/src/usb_core.c ****       return USB_OTG_OK;
 123              		.loc 1 137 0
 124 007e 4FF00003 		mov	r3, #0
 125 0082 29E0     		b	.L4
 126              	.L3:
 138:../Libraries/STM32_USB_OTG_Driver/src/usb_core.c ****     }
 139:../Libraries/STM32_USB_OTG_Driver/src/usb_core.c ****   }
 140:../Libraries/STM32_USB_OTG_Driver/src/usb_core.c ****   while (greset.b.ahbidle == 0);
 127              		.loc 1 140 0
 128 0084 FB68     		ldr	r3, [r7, #12]
 129 0086 C3F3C073 		ubfx	r3, r3, #31, #1
 130 008a DBB2     		uxtb	r3, r3
 131 008c 002B     		cmp	r3, #0
 132 008e E6D0     		beq	.L5
 141:../Libraries/STM32_USB_OTG_Driver/src/usb_core.c ****   /* Core Soft Reset */
 142:../Libraries/STM32_USB_OTG_Driver/src/usb_core.c ****   count = 0;
 133              		.loc 1 142 0
 134 0090 4FF00003 		mov	r3, #0
 135 0094 7B61     		str	r3, [r7, #20]
 143:../Libraries/STM32_USB_OTG_Driver/src/usb_core.c ****   greset.b.csftrst = 1;
 136              		.loc 1 143 0
 137 0096 FB68     		ldr	r3, [r7, #12]
 138 0098 43F00103 		orr	r3, r3, #1
 139 009c FB60     		str	r3, [r7, #12]
 144:../Libraries/STM32_USB_OTG_Driver/src/usb_core.c ****   USB_OTG_WRITE_REG32(&pdev->regs.GREGS->GRSTCTL, greset.d32 );
 140              		.loc 1 144 0
 141 009e 7B68     		ldr	r3, [r7, #4]
 142 00a0 DB68     		ldr	r3, [r3, #12]
 143 00a2 FA68     		ldr	r2, [r7, #12]
 144 00a4 1A61     		str	r2, [r3, #16]
 145              	.L8:
 145:../Libraries/STM32_USB_OTG_Driver/src/usb_core.c ****   do
 146:../Libraries/STM32_USB_OTG_Driver/src/usb_core.c ****   {
 147:../Libraries/STM32_USB_OTG_Driver/src/usb_core.c ****     greset.d32 = USB_OTG_READ_REG32(&pdev->regs.GREGS->GRSTCTL);
 146              		.loc 1 147 0
 147 00a6 7B68     		ldr	r3, [r7, #4]
 148 00a8 DB68     		ldr	r3, [r3, #12]
 149 00aa 1B69     		ldr	r3, [r3, #16]
 150 00ac FB60     		str	r3, [r7, #12]
 148:../Libraries/STM32_USB_OTG_Driver/src/usb_core.c ****     if (++count > 200000)
 151              		.loc 1 148 0
 152 00ae 7B69     		ldr	r3, [r7, #20]
 153 00b0 03F10103 		add	r3, r3, #1
 154 00b4 7B61     		str	r3, [r7, #20]
 155 00b6 7A69     		ldr	r2, [r7, #20]
 156 00b8 0A4B     		ldr	r3, .L10
 157 00ba 9A42     		cmp	r2, r3
 158 00bc 06D8     		bhi	.L9
 159              	.L6:
 149:../Libraries/STM32_USB_OTG_Driver/src/usb_core.c ****     {
 150:../Libraries/STM32_USB_OTG_Driver/src/usb_core.c ****       break;
 151:../Libraries/STM32_USB_OTG_Driver/src/usb_core.c ****     }
 152:../Libraries/STM32_USB_OTG_Driver/src/usb_core.c ****   }
 153:../Libraries/STM32_USB_OTG_Driver/src/usb_core.c ****   while (greset.b.csftrst == 1);
 160              		.loc 1 153 0
 161 00be FB68     		ldr	r3, [r7, #12]
 162 00c0 C3F30003 		ubfx	r3, r3, #0, #1
 163 00c4 DBB2     		uxtb	r3, r3
 164 00c6 012B     		cmp	r3, #1
 165 00c8 EDD0     		beq	.L8
 166 00ca 00E0     		b	.L7
 167              	.L9:
 150:../Libraries/STM32_USB_OTG_Driver/src/usb_core.c ****       break;
 168              		.loc 1 150 0
 169 00cc 00BF     		nop
 170              	.L7:
 154:../Libraries/STM32_USB_OTG_Driver/src/usb_core.c ****   /* Wait for 3 PHY Clocks*/
 155:../Libraries/STM32_USB_OTG_Driver/src/usb_core.c ****   USB_OTG_BSP_uDelay(3);
 171              		.loc 1 155 0
 172 00ce 4FF00300 		mov	r0, #3
 173 00d2 FFF7FEFF 		bl	USB_OTG_BSP_uDelay
 156:../Libraries/STM32_USB_OTG_Driver/src/usb_core.c ****   return status;
 174              		.loc 1 156 0
 175 00d6 FB7C     		ldrb	r3, [r7, #19]	@ zero_extendqisi2
 176              	.L4:
 157:../Libraries/STM32_USB_OTG_Driver/src/usb_core.c **** }
 177              		.loc 1 157 0
 178 00d8 1846     		mov	r0, r3
 179 00da 07F11807 		add	r7, r7, #24
 180 00de BD46     		mov	sp, r7
 181 00e0 80BD     		pop	{r7, pc}
 182              	.L11:
 183 00e2 00BF     		.align	2
 184              	.L10:
 185 00e4 400D0300 		.word	200000
 186              		.cfi_endproc
 187              	.LFE111:
 189              		.align	2
 190              		.global	USB_OTG_WritePacket
 191              		.thumb
 192              		.thumb_func
 194              	USB_OTG_WritePacket:
 195              	.LFB112:
 158:../Libraries/STM32_USB_OTG_Driver/src/usb_core.c **** 
 159:../Libraries/STM32_USB_OTG_Driver/src/usb_core.c **** /**
 160:../Libraries/STM32_USB_OTG_Driver/src/usb_core.c **** * @brief  USB_OTG_WritePacket : Writes a packet into the Tx FIFO associated 
 161:../Libraries/STM32_USB_OTG_Driver/src/usb_core.c **** *         with the EP
 162:../Libraries/STM32_USB_OTG_Driver/src/usb_core.c **** * @param  pdev : Selected device
 163:../Libraries/STM32_USB_OTG_Driver/src/usb_core.c **** * @param  src : source pointer
 164:../Libraries/STM32_USB_OTG_Driver/src/usb_core.c **** * @param  ch_ep_num : end point number
 165:../Libraries/STM32_USB_OTG_Driver/src/usb_core.c **** * @param  bytes : No. of bytes
 166:../Libraries/STM32_USB_OTG_Driver/src/usb_core.c **** * @retval USB_OTG_STS : status
 167:../Libraries/STM32_USB_OTG_Driver/src/usb_core.c **** */
 168:../Libraries/STM32_USB_OTG_Driver/src/usb_core.c **** USB_OTG_STS USB_OTG_WritePacket(USB_OTG_CORE_HANDLE *pdev, 
 169:../Libraries/STM32_USB_OTG_Driver/src/usb_core.c ****                                 uint8_t             *src, 
 170:../Libraries/STM32_USB_OTG_Driver/src/usb_core.c ****                                 uint8_t             ch_ep_num, 
 171:../Libraries/STM32_USB_OTG_Driver/src/usb_core.c ****                                 uint16_t            len)
 172:../Libraries/STM32_USB_OTG_Driver/src/usb_core.c **** {
 196              		.loc 1 172 0
 197              		.cfi_startproc
 198              		@ args = 0, pretend = 0, frame = 32
 199              		@ frame_needed = 1, uses_anonymous_args = 0
 200              		@ link register save eliminated.
 201 00e8 80B4     		push	{r7}
 202              	.LCFI6:
 203              		.cfi_def_cfa_offset 4
 204              		.cfi_offset 7, -4
 205 00ea 89B0     		sub	sp, sp, #36
 206              	.LCFI7:
 207              		.cfi_def_cfa_offset 40
 208 00ec 00AF     		add	r7, sp, #0
 209              	.LCFI8:
 210              		.cfi_def_cfa_register 7
 211 00ee F860     		str	r0, [r7, #12]
 212 00f0 B960     		str	r1, [r7, #8]
 213 00f2 FA71     		strb	r2, [r7, #7]
 214 00f4 BB80     		strh	r3, [r7, #4]	@ movhi
 173:../Libraries/STM32_USB_OTG_Driver/src/usb_core.c ****   USB_OTG_STS status = USB_OTG_OK;
 215              		.loc 1 173 0
 216 00f6 4FF00003 		mov	r3, #0
 217 00fa FB76     		strb	r3, [r7, #27]
 174:../Libraries/STM32_USB_OTG_Driver/src/usb_core.c ****   if (pdev->cfg.dma_enable == 0)
 218              		.loc 1 174 0
 219 00fc FB68     		ldr	r3, [r7, #12]
 220 00fe DB78     		ldrb	r3, [r3, #3]	@ zero_extendqisi2
 221 0100 002B     		cmp	r3, #0
 222 0102 2CD1     		bne	.L13
 223              	.LBB2:
 175:../Libraries/STM32_USB_OTG_Driver/src/usb_core.c ****   {
 176:../Libraries/STM32_USB_OTG_Driver/src/usb_core.c ****     uint32_t count32b= 0 , i= 0;
 224              		.loc 1 176 0
 225 0104 4FF00003 		mov	r3, #0
 226 0108 7B61     		str	r3, [r7, #20]
 227 010a 4FF00003 		mov	r3, #0
 228 010e FB61     		str	r3, [r7, #28]
 177:../Libraries/STM32_USB_OTG_Driver/src/usb_core.c ****     __IO uint32_t *fifo;
 178:../Libraries/STM32_USB_OTG_Driver/src/usb_core.c ****     
 179:../Libraries/STM32_USB_OTG_Driver/src/usb_core.c ****     count32b =  (len + 3) / 4;
 229              		.loc 1 179 0
 230 0110 BB88     		ldrh	r3, [r7, #4]
 231 0112 03F10303 		add	r3, r3, #3
 232 0116 002B     		cmp	r3, #0
 233 0118 01DA     		bge	.L14
 234 011a 03F10303 		add	r3, r3, #3
 235              	.L14:
 236 011e 4FEAA303 		asr	r3, r3, #2
 237 0122 7B61     		str	r3, [r7, #20]
 180:../Libraries/STM32_USB_OTG_Driver/src/usb_core.c ****     fifo = pdev->regs.DFIFO[ch_ep_num];
 238              		.loc 1 180 0
 239 0124 FB79     		ldrb	r3, [r7, #7]	@ zero_extendqisi2
 240 0126 FA68     		ldr	r2, [r7, #12]
 241 0128 03F13203 		add	r3, r3, #50
 242 012c 4FEA8303 		lsl	r3, r3, #2
 243 0130 D318     		adds	r3, r2, r3
 244 0132 9B68     		ldr	r3, [r3, #8]
 245 0134 3B61     		str	r3, [r7, #16]
 181:../Libraries/STM32_USB_OTG_Driver/src/usb_core.c ****     for (i = 0; i < count32b; i++, src+=4)
 246              		.loc 1 181 0
 247 0136 4FF00003 		mov	r3, #0
 248 013a FB61     		str	r3, [r7, #28]
 249 013c 0BE0     		b	.L15
 250              	.L16:
 182:../Libraries/STM32_USB_OTG_Driver/src/usb_core.c ****     {
 183:../Libraries/STM32_USB_OTG_Driver/src/usb_core.c ****       USB_OTG_WRITE_REG32( fifo, *((__packed uint32_t *)src) );
 251              		.loc 1 183 0 discriminator 2
 252 013e BB68     		ldr	r3, [r7, #8]
 253 0140 1A68     		ldr	r2, [r3, #0]
 254 0142 3B69     		ldr	r3, [r7, #16]
 255 0144 1A60     		str	r2, [r3, #0]
 181:../Libraries/STM32_USB_OTG_Driver/src/usb_core.c ****     for (i = 0; i < count32b; i++, src+=4)
 256              		.loc 1 181 0 discriminator 2
 257 0146 FB69     		ldr	r3, [r7, #28]
 258 0148 03F10103 		add	r3, r3, #1
 259 014c FB61     		str	r3, [r7, #28]
 260 014e BB68     		ldr	r3, [r7, #8]
 261 0150 03F10403 		add	r3, r3, #4
 262 0154 BB60     		str	r3, [r7, #8]
 263              	.L15:
 181:../Libraries/STM32_USB_OTG_Driver/src/usb_core.c ****     for (i = 0; i < count32b; i++, src+=4)
 264              		.loc 1 181 0 is_stmt 0 discriminator 1
 265 0156 FA69     		ldr	r2, [r7, #28]
 266 0158 7B69     		ldr	r3, [r7, #20]
 267 015a 9A42     		cmp	r2, r3
 268 015c EFD3     		bcc	.L16
 269              	.L13:
 270              	.LBE2:
 184:../Libraries/STM32_USB_OTG_Driver/src/usb_core.c ****     }
 185:../Libraries/STM32_USB_OTG_Driver/src/usb_core.c ****   }
 186:../Libraries/STM32_USB_OTG_Driver/src/usb_core.c ****   return status;
 271              		.loc 1 186 0 is_stmt 1
 272 015e FB7E     		ldrb	r3, [r7, #27]	@ zero_extendqisi2
 187:../Libraries/STM32_USB_OTG_Driver/src/usb_core.c **** }
 273              		.loc 1 187 0
 274 0160 1846     		mov	r0, r3
 275 0162 07F12407 		add	r7, r7, #36
 276 0166 BD46     		mov	sp, r7
 277 0168 80BC     		pop	{r7}
 278 016a 7047     		bx	lr
 279              		.cfi_endproc
 280              	.LFE112:
 282              		.align	2
 283              		.global	USB_OTG_ReadPacket
 284              		.thumb
 285              		.thumb_func
 287              	USB_OTG_ReadPacket:
 288              	.LFB113:
 188:../Libraries/STM32_USB_OTG_Driver/src/usb_core.c **** 
 189:../Libraries/STM32_USB_OTG_Driver/src/usb_core.c **** 
 190:../Libraries/STM32_USB_OTG_Driver/src/usb_core.c **** /**
 191:../Libraries/STM32_USB_OTG_Driver/src/usb_core.c **** * @brief  USB_OTG_ReadPacket : Reads a packet from the Rx FIFO
 192:../Libraries/STM32_USB_OTG_Driver/src/usb_core.c **** * @param  pdev : Selected device
 193:../Libraries/STM32_USB_OTG_Driver/src/usb_core.c **** * @param  dest : Destination Pointer
 194:../Libraries/STM32_USB_OTG_Driver/src/usb_core.c **** * @param  bytes : No. of bytes
 195:../Libraries/STM32_USB_OTG_Driver/src/usb_core.c **** * @retval None
 196:../Libraries/STM32_USB_OTG_Driver/src/usb_core.c **** */
 197:../Libraries/STM32_USB_OTG_Driver/src/usb_core.c **** void *USB_OTG_ReadPacket(USB_OTG_CORE_HANDLE *pdev, 
 198:../Libraries/STM32_USB_OTG_Driver/src/usb_core.c ****                          uint8_t *dest, 
 199:../Libraries/STM32_USB_OTG_Driver/src/usb_core.c ****                          uint16_t len)
 200:../Libraries/STM32_USB_OTG_Driver/src/usb_core.c **** {
 289              		.loc 1 200 0
 290              		.cfi_startproc
 291              		@ args = 0, pretend = 0, frame = 32
 292              		@ frame_needed = 1, uses_anonymous_args = 0
 293              		@ link register save eliminated.
 294 016c 80B4     		push	{r7}
 295              	.LCFI9:
 296              		.cfi_def_cfa_offset 4
 297              		.cfi_offset 7, -4
 298 016e 89B0     		sub	sp, sp, #36
 299              	.LCFI10:
 300              		.cfi_def_cfa_offset 40
 301 0170 00AF     		add	r7, sp, #0
 302              	.LCFI11:
 303              		.cfi_def_cfa_register 7
 304 0172 F860     		str	r0, [r7, #12]
 305 0174 B960     		str	r1, [r7, #8]
 306 0176 1346     		mov	r3, r2
 307 0178 FB80     		strh	r3, [r7, #6]	@ movhi
 201:../Libraries/STM32_USB_OTG_Driver/src/usb_core.c ****   uint32_t i=0;
 308              		.loc 1 201 0
 309 017a 4FF00003 		mov	r3, #0
 310 017e FB61     		str	r3, [r7, #28]
 202:../Libraries/STM32_USB_OTG_Driver/src/usb_core.c ****   uint32_t count32b = (len + 3) / 4;
 311              		.loc 1 202 0
 312 0180 FB88     		ldrh	r3, [r7, #6]
 313 0182 03F10303 		add	r3, r3, #3
 314 0186 002B     		cmp	r3, #0
 315 0188 01DA     		bge	.L19
 316 018a 03F10303 		add	r3, r3, #3
 317              	.L19:
 318 018e 4FEAA303 		asr	r3, r3, #2
 319 0192 BB61     		str	r3, [r7, #24]
 203:../Libraries/STM32_USB_OTG_Driver/src/usb_core.c ****   
 204:../Libraries/STM32_USB_OTG_Driver/src/usb_core.c ****   __IO uint32_t *fifo = pdev->regs.DFIFO[0];
 320              		.loc 1 204 0
 321 0194 FB68     		ldr	r3, [r7, #12]
 322 0196 D3F8D030 		ldr	r3, [r3, #208]
 323 019a 7B61     		str	r3, [r7, #20]
 205:../Libraries/STM32_USB_OTG_Driver/src/usb_core.c ****   
 206:../Libraries/STM32_USB_OTG_Driver/src/usb_core.c ****   for ( i = 0; i < count32b; i++, dest += 4 )
 324              		.loc 1 206 0
 325 019c 4FF00003 		mov	r3, #0
 326 01a0 FB61     		str	r3, [r7, #28]
 327 01a2 0BE0     		b	.L20
 328              	.L21:
 207:../Libraries/STM32_USB_OTG_Driver/src/usb_core.c ****   {
 208:../Libraries/STM32_USB_OTG_Driver/src/usb_core.c ****     *(__packed uint32_t *)dest = USB_OTG_READ_REG32(fifo);
 329              		.loc 1 208 0 discriminator 2
 330 01a4 7B69     		ldr	r3, [r7, #20]
 331 01a6 1A68     		ldr	r2, [r3, #0]
 332 01a8 BB68     		ldr	r3, [r7, #8]
 333 01aa 1A60     		str	r2, [r3, #0]
 206:../Libraries/STM32_USB_OTG_Driver/src/usb_core.c ****   for ( i = 0; i < count32b; i++, dest += 4 )
 334              		.loc 1 206 0 discriminator 2
 335 01ac FB69     		ldr	r3, [r7, #28]
 336 01ae 03F10103 		add	r3, r3, #1
 337 01b2 FB61     		str	r3, [r7, #28]
 338 01b4 BB68     		ldr	r3, [r7, #8]
 339 01b6 03F10403 		add	r3, r3, #4
 340 01ba BB60     		str	r3, [r7, #8]
 341              	.L20:
 206:../Libraries/STM32_USB_OTG_Driver/src/usb_core.c ****   for ( i = 0; i < count32b; i++, dest += 4 )
 342              		.loc 1 206 0 is_stmt 0 discriminator 1
 343 01bc FA69     		ldr	r2, [r7, #28]
 344 01be BB69     		ldr	r3, [r7, #24]
 345 01c0 9A42     		cmp	r2, r3
 346 01c2 EFD3     		bcc	.L21
 209:../Libraries/STM32_USB_OTG_Driver/src/usb_core.c ****     
 210:../Libraries/STM32_USB_OTG_Driver/src/usb_core.c ****   }
 211:../Libraries/STM32_USB_OTG_Driver/src/usb_core.c ****   return ((void *)dest);
 347              		.loc 1 211 0 is_stmt 1
 348 01c4 BB68     		ldr	r3, [r7, #8]
 212:../Libraries/STM32_USB_OTG_Driver/src/usb_core.c **** }
 349              		.loc 1 212 0
 350 01c6 1846     		mov	r0, r3
 351 01c8 07F12407 		add	r7, r7, #36
 352 01cc BD46     		mov	sp, r7
 353 01ce 80BC     		pop	{r7}
 354 01d0 7047     		bx	lr
 355              		.cfi_endproc
 356              	.LFE113:
 358 01d2 00BF     		.align	2
 359              		.global	USB_OTG_SelectCore
 360              		.thumb
 361              		.thumb_func
 363              	USB_OTG_SelectCore:
 364              	.LFB114:
 213:../Libraries/STM32_USB_OTG_Driver/src/usb_core.c **** 
 214:../Libraries/STM32_USB_OTG_Driver/src/usb_core.c **** /**
 215:../Libraries/STM32_USB_OTG_Driver/src/usb_core.c **** * @brief  USB_OTG_SelectCore 
 216:../Libraries/STM32_USB_OTG_Driver/src/usb_core.c **** *         Initialize core registers address.
 217:../Libraries/STM32_USB_OTG_Driver/src/usb_core.c **** * @param  pdev : Selected device
 218:../Libraries/STM32_USB_OTG_Driver/src/usb_core.c **** * @param  coreID : USB OTG Core ID
 219:../Libraries/STM32_USB_OTG_Driver/src/usb_core.c **** * @retval USB_OTG_STS : status
 220:../Libraries/STM32_USB_OTG_Driver/src/usb_core.c **** */
 221:../Libraries/STM32_USB_OTG_Driver/src/usb_core.c **** USB_OTG_STS USB_OTG_SelectCore(USB_OTG_CORE_HANDLE *pdev, 
 222:../Libraries/STM32_USB_OTG_Driver/src/usb_core.c ****                                USB_OTG_CORE_ID_TypeDef coreID)
 223:../Libraries/STM32_USB_OTG_Driver/src/usb_core.c **** {
 365              		.loc 1 223 0
 366              		.cfi_startproc
 367              		@ args = 0, pretend = 0, frame = 24
 368              		@ frame_needed = 1, uses_anonymous_args = 0
 369              		@ link register save eliminated.
 370 01d4 80B4     		push	{r7}
 371              	.LCFI12:
 372              		.cfi_def_cfa_offset 4
 373              		.cfi_offset 7, -4
 374 01d6 87B0     		sub	sp, sp, #28
 375              	.LCFI13:
 376              		.cfi_def_cfa_offset 32
 377 01d8 00AF     		add	r7, sp, #0
 378              	.LCFI14:
 379              		.cfi_def_cfa_register 7
 380 01da 7860     		str	r0, [r7, #4]
 381 01dc 0B46     		mov	r3, r1
 382 01de FB70     		strb	r3, [r7, #3]
 224:../Libraries/STM32_USB_OTG_Driver/src/usb_core.c ****   uint32_t i , baseAddress = 0;
 383              		.loc 1 224 0
 384 01e0 4FF00003 		mov	r3, #0
 385 01e4 3B61     		str	r3, [r7, #16]
 225:../Libraries/STM32_USB_OTG_Driver/src/usb_core.c ****   USB_OTG_STS status = USB_OTG_OK;
 386              		.loc 1 225 0
 387 01e6 4FF00003 		mov	r3, #0
 388 01ea FB73     		strb	r3, [r7, #15]
 226:../Libraries/STM32_USB_OTG_Driver/src/usb_core.c ****   
 227:../Libraries/STM32_USB_OTG_Driver/src/usb_core.c ****   pdev->cfg.dma_enable       = 0;
 389              		.loc 1 227 0
 390 01ec 7B68     		ldr	r3, [r7, #4]
 391 01ee 4FF00002 		mov	r2, #0
 392 01f2 DA70     		strb	r2, [r3, #3]
 228:../Libraries/STM32_USB_OTG_Driver/src/usb_core.c ****   
 229:../Libraries/STM32_USB_OTG_Driver/src/usb_core.c ****   /* at startup the core is in FS mode */
 230:../Libraries/STM32_USB_OTG_Driver/src/usb_core.c ****   pdev->cfg.speed            = USB_OTG_SPEED_FULL;
 393              		.loc 1 230 0
 394 01f4 7B68     		ldr	r3, [r7, #4]
 395 01f6 4FF00102 		mov	r2, #1
 396 01fa 9A70     		strb	r2, [r3, #2]
 231:../Libraries/STM32_USB_OTG_Driver/src/usb_core.c ****   pdev->cfg.mps              = USB_OTG_FS_MAX_PACKET_SIZE ;    
 397              		.loc 1 231 0
 398 01fc 7B68     		ldr	r3, [r7, #4]
 399 01fe 4FF04002 		mov	r2, #64
 400 0202 9A80     		strh	r2, [r3, #4]	@ movhi
 232:../Libraries/STM32_USB_OTG_Driver/src/usb_core.c ****   
 233:../Libraries/STM32_USB_OTG_Driver/src/usb_core.c ****   /* initialize device cfg following its address */
 234:../Libraries/STM32_USB_OTG_Driver/src/usb_core.c ****   if (coreID == USB_OTG_FS_CORE_ID)
 401              		.loc 1 234 0
 402 0204 FB78     		ldrb	r3, [r7, #3]	@ zero_extendqisi2
 403 0206 012B     		cmp	r3, #1
 404 0208 17D1     		bne	.L24
 235:../Libraries/STM32_USB_OTG_Driver/src/usb_core.c ****   {
 236:../Libraries/STM32_USB_OTG_Driver/src/usb_core.c ****     baseAddress                = USB_OTG_FS_BASE_ADDR;
 405              		.loc 1 236 0
 406 020a 4FF0A043 		mov	r3, #1342177280
 407 020e 3B61     		str	r3, [r7, #16]
 237:../Libraries/STM32_USB_OTG_Driver/src/usb_core.c ****     pdev->cfg.coreID           = USB_OTG_FS_CORE_ID;
 408              		.loc 1 237 0
 409 0210 7B68     		ldr	r3, [r7, #4]
 410 0212 4FF00102 		mov	r2, #1
 411 0216 DA72     		strb	r2, [r3, #11]
 238:../Libraries/STM32_USB_OTG_Driver/src/usb_core.c ****     pdev->cfg.host_channels    = 8 ;
 412              		.loc 1 238 0
 413 0218 7B68     		ldr	r3, [r7, #4]
 414 021a 4FF00802 		mov	r2, #8
 415 021e 1A70     		strb	r2, [r3, #0]
 239:../Libraries/STM32_USB_OTG_Driver/src/usb_core.c ****     pdev->cfg.dev_endpoints    = 4 ;
 416              		.loc 1 239 0
 417 0220 7B68     		ldr	r3, [r7, #4]
 418 0222 4FF00402 		mov	r2, #4
 419 0226 5A70     		strb	r2, [r3, #1]
 240:../Libraries/STM32_USB_OTG_Driver/src/usb_core.c ****     pdev->cfg.TotalFifoSize    = 320; /* in 32-bits */
 420              		.loc 1 240 0
 421 0228 7B68     		ldr	r3, [r7, #4]
 422 022a 4FF4A072 		mov	r2, #320
 423 022e DA80     		strh	r2, [r3, #6]	@ movhi
 241:../Libraries/STM32_USB_OTG_Driver/src/usb_core.c ****     pdev->cfg.phy_itface       = USB_OTG_EMBEDDED_PHY;     
 424              		.loc 1 241 0
 425 0230 7B68     		ldr	r3, [r7, #4]
 426 0232 4FF00202 		mov	r2, #2
 427 0236 1A72     		strb	r2, [r3, #8]
 428 0238 14E0     		b	.L25
 429              	.L24:
 242:../Libraries/STM32_USB_OTG_Driver/src/usb_core.c ****     
 243:../Libraries/STM32_USB_OTG_Driver/src/usb_core.c **** #ifdef USB_OTG_FS_SOF_OUTPUT_ENABLED    
 244:../Libraries/STM32_USB_OTG_Driver/src/usb_core.c ****     pdev->cfg.Sof_output       = 1;    
 245:../Libraries/STM32_USB_OTG_Driver/src/usb_core.c **** #endif 
 246:../Libraries/STM32_USB_OTG_Driver/src/usb_core.c ****     
 247:../Libraries/STM32_USB_OTG_Driver/src/usb_core.c **** #ifdef USB_OTG_FS_LOW_PWR_MGMT_SUPPORT    
 248:../Libraries/STM32_USB_OTG_Driver/src/usb_core.c ****     pdev->cfg.low_power        = 1;    
 249:../Libraries/STM32_USB_OTG_Driver/src/usb_core.c **** #endif     
 250:../Libraries/STM32_USB_OTG_Driver/src/usb_core.c ****   }
 251:../Libraries/STM32_USB_OTG_Driver/src/usb_core.c ****   else if (coreID == USB_OTG_HS_CORE_ID)
 430              		.loc 1 251 0
 431 023a FB78     		ldrb	r3, [r7, #3]	@ zero_extendqisi2
 432 023c 002B     		cmp	r3, #0
 433 023e 11D1     		bne	.L25
 252:../Libraries/STM32_USB_OTG_Driver/src/usb_core.c ****   {
 253:../Libraries/STM32_USB_OTG_Driver/src/usb_core.c ****     baseAddress                = USB_OTG_HS_BASE_ADDR;
 434              		.loc 1 253 0
 435 0240 4F4B     		ldr	r3, .L33
 436 0242 3B61     		str	r3, [r7, #16]
 254:../Libraries/STM32_USB_OTG_Driver/src/usb_core.c ****     pdev->cfg.coreID           = USB_OTG_HS_CORE_ID;    
 437              		.loc 1 254 0
 438 0244 7B68     		ldr	r3, [r7, #4]
 439 0246 4FF00002 		mov	r2, #0
 440 024a DA72     		strb	r2, [r3, #11]
 255:../Libraries/STM32_USB_OTG_Driver/src/usb_core.c ****     pdev->cfg.host_channels    = 12 ;
 441              		.loc 1 255 0
 442 024c 7B68     		ldr	r3, [r7, #4]
 443 024e 4FF00C02 		mov	r2, #12
 444 0252 1A70     		strb	r2, [r3, #0]
 256:../Libraries/STM32_USB_OTG_Driver/src/usb_core.c ****     pdev->cfg.dev_endpoints    = 6 ;
 445              		.loc 1 256 0
 446 0254 7B68     		ldr	r3, [r7, #4]
 447 0256 4FF00602 		mov	r2, #6
 448 025a 5A70     		strb	r2, [r3, #1]
 257:../Libraries/STM32_USB_OTG_Driver/src/usb_core.c ****     pdev->cfg.TotalFifoSize    = 1280;/* in 32-bits */
 449              		.loc 1 257 0
 450 025c 7B68     		ldr	r3, [r7, #4]
 451 025e 4FF4A062 		mov	r2, #1280
 452 0262 DA80     		strh	r2, [r3, #6]	@ movhi
 453              	.L25:
 258:../Libraries/STM32_USB_OTG_Driver/src/usb_core.c ****     
 259:../Libraries/STM32_USB_OTG_Driver/src/usb_core.c **** #ifdef USB_OTG_ULPI_PHY_ENABLED
 260:../Libraries/STM32_USB_OTG_Driver/src/usb_core.c ****     pdev->cfg.phy_itface       = USB_OTG_ULPI_PHY;
 261:../Libraries/STM32_USB_OTG_Driver/src/usb_core.c **** #else    
 262:../Libraries/STM32_USB_OTG_Driver/src/usb_core.c **** #ifdef USB_OTG_EMBEDDED_PHY_ENABLED
 263:../Libraries/STM32_USB_OTG_Driver/src/usb_core.c ****     pdev->cfg.phy_itface       = USB_OTG_EMBEDDED_PHY;
 264:../Libraries/STM32_USB_OTG_Driver/src/usb_core.c **** #endif  
 265:../Libraries/STM32_USB_OTG_Driver/src/usb_core.c **** #endif      
 266:../Libraries/STM32_USB_OTG_Driver/src/usb_core.c ****     
 267:../Libraries/STM32_USB_OTG_Driver/src/usb_core.c **** #ifdef USB_OTG_HS_INTERNAL_DMA_ENABLED    
 268:../Libraries/STM32_USB_OTG_Driver/src/usb_core.c ****     pdev->cfg.dma_enable       = 1;    
 269:../Libraries/STM32_USB_OTG_Driver/src/usb_core.c **** #endif
 270:../Libraries/STM32_USB_OTG_Driver/src/usb_core.c ****     
 271:../Libraries/STM32_USB_OTG_Driver/src/usb_core.c **** #ifdef USB_OTG_HS_SOF_OUTPUT_ENABLED    
 272:../Libraries/STM32_USB_OTG_Driver/src/usb_core.c ****     pdev->cfg.Sof_output       = 1;    
 273:../Libraries/STM32_USB_OTG_Driver/src/usb_core.c **** #endif 
 274:../Libraries/STM32_USB_OTG_Driver/src/usb_core.c ****     
 275:../Libraries/STM32_USB_OTG_Driver/src/usb_core.c **** #ifdef USB_OTG_HS_LOW_PWR_MGMT_SUPPORT    
 276:../Libraries/STM32_USB_OTG_Driver/src/usb_core.c ****     pdev->cfg.low_power        = 1;    
 277:../Libraries/STM32_USB_OTG_Driver/src/usb_core.c **** #endif 
 278:../Libraries/STM32_USB_OTG_Driver/src/usb_core.c ****     
 279:../Libraries/STM32_USB_OTG_Driver/src/usb_core.c ****   }
 280:../Libraries/STM32_USB_OTG_Driver/src/usb_core.c ****   
 281:../Libraries/STM32_USB_OTG_Driver/src/usb_core.c ****   pdev->regs.GREGS = (USB_OTG_GREGS *)(baseAddress + \
 454              		.loc 1 281 0
 455 0264 3A69     		ldr	r2, [r7, #16]
 456 0266 7B68     		ldr	r3, [r7, #4]
 457 0268 DA60     		str	r2, [r3, #12]
 282:../Libraries/STM32_USB_OTG_Driver/src/usb_core.c ****     USB_OTG_CORE_GLOBAL_REGS_OFFSET);
 283:../Libraries/STM32_USB_OTG_Driver/src/usb_core.c ****   pdev->regs.DREGS =  (USB_OTG_DREGS  *)  (baseAddress + \
 458              		.loc 1 283 0
 459 026a 3B69     		ldr	r3, [r7, #16]
 460 026c 03F50063 		add	r3, r3, #2048
 461 0270 1A46     		mov	r2, r3
 462 0272 7B68     		ldr	r3, [r7, #4]
 463 0274 1A61     		str	r2, [r3, #16]
 284:../Libraries/STM32_USB_OTG_Driver/src/usb_core.c ****     USB_OTG_DEV_GLOBAL_REG_OFFSET);
 285:../Libraries/STM32_USB_OTG_Driver/src/usb_core.c ****   
 286:../Libraries/STM32_USB_OTG_Driver/src/usb_core.c ****   for (i = 0; i < pdev->cfg.dev_endpoints; i++)
 464              		.loc 1 286 0
 465 0276 4FF00003 		mov	r3, #0
 466 027a 7B61     		str	r3, [r7, #20]
 467 027c 23E0     		b	.L26
 468              	.L27:
 287:../Libraries/STM32_USB_OTG_Driver/src/usb_core.c ****   {
 288:../Libraries/STM32_USB_OTG_Driver/src/usb_core.c ****     pdev->regs.INEP_REGS[i]  = (USB_OTG_INEPREGS *)  \
 289:../Libraries/STM32_USB_OTG_Driver/src/usb_core.c ****       (baseAddress + USB_OTG_DEV_IN_EP_REG_OFFSET + \
 290:../Libraries/STM32_USB_OTG_Driver/src/usb_core.c ****         (i * USB_OTG_EP_REG_OFFSET));
 469              		.loc 1 290 0 discriminator 2
 470 027e 7B69     		ldr	r3, [r7, #20]
 471 0280 4FEA4312 		lsl	r2, r3, #5
 289:../Libraries/STM32_USB_OTG_Driver/src/usb_core.c ****       (baseAddress + USB_OTG_DEV_IN_EP_REG_OFFSET + \
 472              		.loc 1 289 0 discriminator 2
 473 0284 3B69     		ldr	r3, [r7, #16]
 474 0286 D318     		adds	r3, r2, r3
 475 0288 03F51063 		add	r3, r3, #2304
 288:../Libraries/STM32_USB_OTG_Driver/src/usb_core.c ****     pdev->regs.INEP_REGS[i]  = (USB_OTG_INEPREGS *)  \
 476              		.loc 1 288 0 discriminator 2
 477 028c 1A46     		mov	r2, r3
 478 028e 7968     		ldr	r1, [r7, #4]
 479 0290 7B69     		ldr	r3, [r7, #20]
 480 0292 03F10403 		add	r3, r3, #4
 481 0296 4FEA8303 		lsl	r3, r3, #2
 482 029a CB18     		adds	r3, r1, r3
 483 029c 9A60     		str	r2, [r3, #8]
 291:../Libraries/STM32_USB_OTG_Driver/src/usb_core.c ****     pdev->regs.OUTEP_REGS[i] = (USB_OTG_OUTEPREGS *) \
 292:../Libraries/STM32_USB_OTG_Driver/src/usb_core.c ****       (baseAddress + USB_OTG_DEV_OUT_EP_REG_OFFSET + \
 293:../Libraries/STM32_USB_OTG_Driver/src/usb_core.c ****         (i * USB_OTG_EP_REG_OFFSET));
 484              		.loc 1 293 0 discriminator 2
 485 029e 7B69     		ldr	r3, [r7, #20]
 486 02a0 4FEA4312 		lsl	r2, r3, #5
 292:../Libraries/STM32_USB_OTG_Driver/src/usb_core.c ****       (baseAddress + USB_OTG_DEV_OUT_EP_REG_OFFSET + \
 487              		.loc 1 292 0 discriminator 2
 488 02a4 3B69     		ldr	r3, [r7, #16]
 489 02a6 D318     		adds	r3, r2, r3
 490 02a8 03F53063 		add	r3, r3, #2816
 291:../Libraries/STM32_USB_OTG_Driver/src/usb_core.c ****     pdev->regs.OUTEP_REGS[i] = (USB_OTG_OUTEPREGS *) \
 491              		.loc 1 291 0 discriminator 2
 492 02ac 1A46     		mov	r2, r3
 493 02ae 7968     		ldr	r1, [r7, #4]
 494 02b0 7B69     		ldr	r3, [r7, #20]
 495 02b2 03F11403 		add	r3, r3, #20
 496 02b6 4FEA8303 		lsl	r3, r3, #2
 497 02ba CB18     		adds	r3, r1, r3
 498 02bc 5A60     		str	r2, [r3, #4]
 286:../Libraries/STM32_USB_OTG_Driver/src/usb_core.c ****   for (i = 0; i < pdev->cfg.dev_endpoints; i++)
 499              		.loc 1 286 0 discriminator 2
 500 02be 7B69     		ldr	r3, [r7, #20]
 501 02c0 03F10103 		add	r3, r3, #1
 502 02c4 7B61     		str	r3, [r7, #20]
 503              	.L26:
 286:../Libraries/STM32_USB_OTG_Driver/src/usb_core.c ****   for (i = 0; i < pdev->cfg.dev_endpoints; i++)
 504              		.loc 1 286 0 is_stmt 0 discriminator 1
 505 02c6 7B68     		ldr	r3, [r7, #4]
 506 02c8 5B78     		ldrb	r3, [r3, #1]	@ zero_extendqisi2
 507 02ca 1A46     		mov	r2, r3
 508 02cc 7B69     		ldr	r3, [r7, #20]
 509 02ce 9A42     		cmp	r2, r3
 510 02d0 D5D8     		bhi	.L27
 294:../Libraries/STM32_USB_OTG_Driver/src/usb_core.c ****   }
 295:../Libraries/STM32_USB_OTG_Driver/src/usb_core.c ****   pdev->regs.HREGS = (USB_OTG_HREGS *)(baseAddress + \
 511              		.loc 1 295 0 is_stmt 1
 512 02d2 3B69     		ldr	r3, [r7, #16]
 513 02d4 03F58063 		add	r3, r3, #1024
 514 02d8 1A46     		mov	r2, r3
 515 02da 7B68     		ldr	r3, [r7, #4]
 516 02dc 5A61     		str	r2, [r3, #20]
 296:../Libraries/STM32_USB_OTG_Driver/src/usb_core.c ****     USB_OTG_HOST_GLOBAL_REG_OFFSET);
 297:../Libraries/STM32_USB_OTG_Driver/src/usb_core.c ****   pdev->regs.HPRT0 = (uint32_t *)(baseAddress + USB_OTG_HOST_PORT_REGS_OFFSET);
 517              		.loc 1 297 0
 518 02de 3B69     		ldr	r3, [r7, #16]
 519 02e0 03F58863 		add	r3, r3, #1088
 520 02e4 1A46     		mov	r2, r3
 521 02e6 7B68     		ldr	r3, [r7, #4]
 522 02e8 C3F8CC20 		str	r2, [r3, #204]
 298:../Libraries/STM32_USB_OTG_Driver/src/usb_core.c ****   
 299:../Libraries/STM32_USB_OTG_Driver/src/usb_core.c ****   for (i = 0; i < pdev->cfg.host_channels; i++)
 523              		.loc 1 299 0
 524 02ec 4FF00003 		mov	r3, #0
 525 02f0 7B61     		str	r3, [r7, #20]
 526 02f2 13E0     		b	.L28
 527              	.L29:
 300:../Libraries/STM32_USB_OTG_Driver/src/usb_core.c ****   {
 301:../Libraries/STM32_USB_OTG_Driver/src/usb_core.c ****     pdev->regs.HC_REGS[i] = (USB_OTG_HC_REGS *)(baseAddress + \
 302:../Libraries/STM32_USB_OTG_Driver/src/usb_core.c ****       USB_OTG_HOST_CHAN_REGS_OFFSET + \
 303:../Libraries/STM32_USB_OTG_Driver/src/usb_core.c ****         (i * USB_OTG_CHAN_REGS_OFFSET));
 528              		.loc 1 303 0 discriminator 2
 529 02f4 7B69     		ldr	r3, [r7, #20]
 530 02f6 4FEA4312 		lsl	r2, r3, #5
 302:../Libraries/STM32_USB_OTG_Driver/src/usb_core.c ****       USB_OTG_HOST_CHAN_REGS_OFFSET + \
 531              		.loc 1 302 0 discriminator 2
 532 02fa 3B69     		ldr	r3, [r7, #16]
 533 02fc D318     		adds	r3, r2, r3
 534 02fe 03F5A063 		add	r3, r3, #1280
 301:../Libraries/STM32_USB_OTG_Driver/src/usb_core.c ****     pdev->regs.HC_REGS[i] = (USB_OTG_HC_REGS *)(baseAddress + \
 535              		.loc 1 301 0 discriminator 2
 536 0302 1A46     		mov	r2, r3
 537 0304 7968     		ldr	r1, [r7, #4]
 538 0306 7B69     		ldr	r3, [r7, #20]
 539 0308 03F12203 		add	r3, r3, #34
 540 030c 4FEA8303 		lsl	r3, r3, #2
 541 0310 CB18     		adds	r3, r1, r3
 542 0312 9A60     		str	r2, [r3, #8]
 299:../Libraries/STM32_USB_OTG_Driver/src/usb_core.c ****   for (i = 0; i < pdev->cfg.host_channels; i++)
 543              		.loc 1 299 0 discriminator 2
 544 0314 7B69     		ldr	r3, [r7, #20]
 545 0316 03F10103 		add	r3, r3, #1
 546 031a 7B61     		str	r3, [r7, #20]
 547              	.L28:
 299:../Libraries/STM32_USB_OTG_Driver/src/usb_core.c ****   for (i = 0; i < pdev->cfg.host_channels; i++)
 548              		.loc 1 299 0 is_stmt 0 discriminator 1
 549 031c 7B68     		ldr	r3, [r7, #4]
 550 031e 1B78     		ldrb	r3, [r3, #0]	@ zero_extendqisi2
 551 0320 1A46     		mov	r2, r3
 552 0322 7B69     		ldr	r3, [r7, #20]
 553 0324 9A42     		cmp	r2, r3
 554 0326 E5D8     		bhi	.L29
 304:../Libraries/STM32_USB_OTG_Driver/src/usb_core.c ****   }
 305:../Libraries/STM32_USB_OTG_Driver/src/usb_core.c ****   for (i = 0; i < pdev->cfg.host_channels; i++)
 555              		.loc 1 305 0 is_stmt 1
 556 0328 4FF00003 		mov	r3, #0
 557 032c 7B61     		str	r3, [r7, #20]
 558 032e 13E0     		b	.L30
 559              	.L31:
 306:../Libraries/STM32_USB_OTG_Driver/src/usb_core.c ****   {
 307:../Libraries/STM32_USB_OTG_Driver/src/usb_core.c ****     pdev->regs.DFIFO[i] = (uint32_t *)(baseAddress + USB_OTG_DATA_FIFO_OFFSET +\
 308:../Libraries/STM32_USB_OTG_Driver/src/usb_core.c ****       (i * USB_OTG_DATA_FIFO_SIZE));
 560              		.loc 1 308 0 discriminator 2
 561 0330 7B69     		ldr	r3, [r7, #20]
 562 0332 4FEA0332 		lsl	r2, r3, #12
 307:../Libraries/STM32_USB_OTG_Driver/src/usb_core.c ****     pdev->regs.DFIFO[i] = (uint32_t *)(baseAddress + USB_OTG_DATA_FIFO_OFFSET +\
 563              		.loc 1 307 0 discriminator 2
 564 0336 3B69     		ldr	r3, [r7, #16]
 565 0338 D318     		adds	r3, r2, r3
 566 033a 03F58053 		add	r3, r3, #4096
 567 033e 1A46     		mov	r2, r3
 568 0340 7968     		ldr	r1, [r7, #4]
 569 0342 7B69     		ldr	r3, [r7, #20]
 570 0344 03F13203 		add	r3, r3, #50
 571 0348 4FEA8303 		lsl	r3, r3, #2
 572 034c CB18     		adds	r3, r1, r3
 573 034e 9A60     		str	r2, [r3, #8]
 305:../Libraries/STM32_USB_OTG_Driver/src/usb_core.c ****   for (i = 0; i < pdev->cfg.host_channels; i++)
 574              		.loc 1 305 0 discriminator 2
 575 0350 7B69     		ldr	r3, [r7, #20]
 576 0352 03F10103 		add	r3, r3, #1
 577 0356 7B61     		str	r3, [r7, #20]
 578              	.L30:
 305:../Libraries/STM32_USB_OTG_Driver/src/usb_core.c ****   for (i = 0; i < pdev->cfg.host_channels; i++)
 579              		.loc 1 305 0 is_stmt 0 discriminator 1
 580 0358 7B68     		ldr	r3, [r7, #4]
 581 035a 1B78     		ldrb	r3, [r3, #0]	@ zero_extendqisi2
 582 035c 1A46     		mov	r2, r3
 583 035e 7B69     		ldr	r3, [r7, #20]
 584 0360 9A42     		cmp	r2, r3
 585 0362 E5D8     		bhi	.L31
 309:../Libraries/STM32_USB_OTG_Driver/src/usb_core.c ****   }
 310:../Libraries/STM32_USB_OTG_Driver/src/usb_core.c ****   pdev->regs.PCGCCTL = (uint32_t *)(baseAddress + USB_OTG_PCGCCTL_OFFSET);
 586              		.loc 1 310 0 is_stmt 1
 587 0364 3B69     		ldr	r3, [r7, #16]
 588 0366 03F56063 		add	r3, r3, #3584
 589 036a 1A46     		mov	r2, r3
 590 036c 7B68     		ldr	r3, [r7, #4]
 591 036e C3F80C21 		str	r2, [r3, #268]
 311:../Libraries/STM32_USB_OTG_Driver/src/usb_core.c ****   
 312:../Libraries/STM32_USB_OTG_Driver/src/usb_core.c ****   return status;
 592              		.loc 1 312 0
 593 0372 FB7B     		ldrb	r3, [r7, #15]	@ zero_extendqisi2
 313:../Libraries/STM32_USB_OTG_Driver/src/usb_core.c **** }
 594              		.loc 1 313 0
 595 0374 1846     		mov	r0, r3
 596 0376 07F11C07 		add	r7, r7, #28
 597 037a BD46     		mov	sp, r7
 598 037c 80BC     		pop	{r7}
 599 037e 7047     		bx	lr
 600              	.L34:
 601              		.align	2
 602              	.L33:
 603 0380 00000440 		.word	1074003968
 604              		.cfi_endproc
 605              	.LFE114:
 607              		.align	2
 608              		.global	USB_OTG_CoreInit
 609              		.thumb
 610              		.thumb_func
 612              	USB_OTG_CoreInit:
 613              	.LFB115:
 314:../Libraries/STM32_USB_OTG_Driver/src/usb_core.c **** 
 315:../Libraries/STM32_USB_OTG_Driver/src/usb_core.c **** 
 316:../Libraries/STM32_USB_OTG_Driver/src/usb_core.c **** /**
 317:../Libraries/STM32_USB_OTG_Driver/src/usb_core.c **** * @brief  USB_OTG_CoreInit
 318:../Libraries/STM32_USB_OTG_Driver/src/usb_core.c **** *         Initializes the USB_OTG controller registers and prepares the core
 319:../Libraries/STM32_USB_OTG_Driver/src/usb_core.c **** *         device mode or host mode operation.
 320:../Libraries/STM32_USB_OTG_Driver/src/usb_core.c **** * @param  pdev : Selected device
 321:../Libraries/STM32_USB_OTG_Driver/src/usb_core.c **** * @retval USB_OTG_STS : status
 322:../Libraries/STM32_USB_OTG_Driver/src/usb_core.c **** */
 323:../Libraries/STM32_USB_OTG_Driver/src/usb_core.c **** USB_OTG_STS USB_OTG_CoreInit(USB_OTG_CORE_HANDLE *pdev)
 324:../Libraries/STM32_USB_OTG_Driver/src/usb_core.c **** {
 614              		.loc 1 324 0
 615              		.cfi_startproc
 616              		@ args = 0, pretend = 0, frame = 24
 617              		@ frame_needed = 1, uses_anonymous_args = 0
 618 0384 80B5     		push	{r7, lr}
 619              	.LCFI15:
 620              		.cfi_def_cfa_offset 8
 621              		.cfi_offset 7, -8
 622              		.cfi_offset 14, -4
 623 0386 86B0     		sub	sp, sp, #24
 624              	.LCFI16:
 625              		.cfi_def_cfa_offset 32
 626 0388 00AF     		add	r7, sp, #0
 627              	.LCFI17:
 628              		.cfi_def_cfa_register 7
 629 038a 7860     		str	r0, [r7, #4]
 325:../Libraries/STM32_USB_OTG_Driver/src/usb_core.c ****   USB_OTG_STS status = USB_OTG_OK;
 630              		.loc 1 325 0
 631 038c 4FF00003 		mov	r3, #0
 632 0390 FB75     		strb	r3, [r7, #23]
 326:../Libraries/STM32_USB_OTG_Driver/src/usb_core.c ****   USB_OTG_GUSBCFG_TypeDef  usbcfg;
 327:../Libraries/STM32_USB_OTG_Driver/src/usb_core.c ****   USB_OTG_GCCFG_TypeDef    gccfg;
 328:../Libraries/STM32_USB_OTG_Driver/src/usb_core.c ****   USB_OTG_GAHBCFG_TypeDef  ahbcfg;
 329:../Libraries/STM32_USB_OTG_Driver/src/usb_core.c ****   
 330:../Libraries/STM32_USB_OTG_Driver/src/usb_core.c ****   usbcfg.d32 = 0;
 633              		.loc 1 330 0
 634 0392 4FF00003 		mov	r3, #0
 635 0396 3B61     		str	r3, [r7, #16]
 331:../Libraries/STM32_USB_OTG_Driver/src/usb_core.c ****   gccfg.d32 = 0;
 636              		.loc 1 331 0
 637 0398 4FF00003 		mov	r3, #0
 638 039c FB60     		str	r3, [r7, #12]
 332:../Libraries/STM32_USB_OTG_Driver/src/usb_core.c ****   ahbcfg.d32 = 0;
 639              		.loc 1 332 0
 640 039e 4FF00003 		mov	r3, #0
 641 03a2 BB60     		str	r3, [r7, #8]
 333:../Libraries/STM32_USB_OTG_Driver/src/usb_core.c ****   
 334:../Libraries/STM32_USB_OTG_Driver/src/usb_core.c ****   
 335:../Libraries/STM32_USB_OTG_Driver/src/usb_core.c ****   
 336:../Libraries/STM32_USB_OTG_Driver/src/usb_core.c ****   if (pdev->cfg.phy_itface == USB_OTG_ULPI_PHY)
 642              		.loc 1 336 0
 643 03a4 7B68     		ldr	r3, [r7, #4]
 644 03a6 1B7A     		ldrb	r3, [r3, #8]	@ zero_extendqisi2
 645 03a8 012B     		cmp	r3, #1
 646 03aa 44D1     		bne	.L36
 337:../Libraries/STM32_USB_OTG_Driver/src/usb_core.c ****   {
 338:../Libraries/STM32_USB_OTG_Driver/src/usb_core.c ****     gccfg.d32 = USB_OTG_READ_REG32(&pdev->regs.GREGS->GCCFG);
 647              		.loc 1 338 0
 648 03ac 7B68     		ldr	r3, [r7, #4]
 649 03ae DB68     		ldr	r3, [r3, #12]
 650 03b0 9B6B     		ldr	r3, [r3, #56]
 651 03b2 FB60     		str	r3, [r7, #12]
 339:../Libraries/STM32_USB_OTG_Driver/src/usb_core.c ****     gccfg.b.pwdn = 0;
 652              		.loc 1 339 0
 653 03b4 FB68     		ldr	r3, [r7, #12]
 654 03b6 6FF31043 		bfc	r3, #16, #1
 655 03ba FB60     		str	r3, [r7, #12]
 340:../Libraries/STM32_USB_OTG_Driver/src/usb_core.c ****     
 341:../Libraries/STM32_USB_OTG_Driver/src/usb_core.c ****     if (pdev->cfg.Sof_output)
 656              		.loc 1 341 0
 657 03bc 7B68     		ldr	r3, [r7, #4]
 658 03be 5B7A     		ldrb	r3, [r3, #9]	@ zero_extendqisi2
 659 03c0 002B     		cmp	r3, #0
 660 03c2 03D0     		beq	.L37
 342:../Libraries/STM32_USB_OTG_Driver/src/usb_core.c ****     {
 343:../Libraries/STM32_USB_OTG_Driver/src/usb_core.c ****       gccfg.b.sofouten = 1;   
 661              		.loc 1 343 0
 662 03c4 FB68     		ldr	r3, [r7, #12]
 663 03c6 43F48013 		orr	r3, r3, #1048576
 664 03ca FB60     		str	r3, [r7, #12]
 665              	.L37:
 344:../Libraries/STM32_USB_OTG_Driver/src/usb_core.c ****     }
 345:../Libraries/STM32_USB_OTG_Driver/src/usb_core.c ****     USB_OTG_WRITE_REG32 (&pdev->regs.GREGS->GCCFG, gccfg.d32);
 666              		.loc 1 345 0
 667 03cc 7B68     		ldr	r3, [r7, #4]
 668 03ce DB68     		ldr	r3, [r3, #12]
 669 03d0 FA68     		ldr	r2, [r7, #12]
 670 03d2 9A63     		str	r2, [r3, #56]
 346:../Libraries/STM32_USB_OTG_Driver/src/usb_core.c ****     
 347:../Libraries/STM32_USB_OTG_Driver/src/usb_core.c ****     /* Init The ULPI Interface */
 348:../Libraries/STM32_USB_OTG_Driver/src/usb_core.c ****     usbcfg.d32 = 0;
 671              		.loc 1 348 0
 672 03d4 4FF00003 		mov	r3, #0
 673 03d8 3B61     		str	r3, [r7, #16]
 349:../Libraries/STM32_USB_OTG_Driver/src/usb_core.c ****     usbcfg.d32 = USB_OTG_READ_REG32(&pdev->regs.GREGS->GUSBCFG);
 674              		.loc 1 349 0
 675 03da 7B68     		ldr	r3, [r7, #4]
 676 03dc DB68     		ldr	r3, [r3, #12]
 677 03de DB68     		ldr	r3, [r3, #12]
 678 03e0 3B61     		str	r3, [r7, #16]
 350:../Libraries/STM32_USB_OTG_Driver/src/usb_core.c ****     
 351:../Libraries/STM32_USB_OTG_Driver/src/usb_core.c ****     usbcfg.b.physel            = 0; /* HS Interface */
 679              		.loc 1 351 0
 680 03e2 3B69     		ldr	r3, [r7, #16]
 681 03e4 6FF38613 		bfc	r3, #6, #1
 682 03e8 3B61     		str	r3, [r7, #16]
 352:../Libraries/STM32_USB_OTG_Driver/src/usb_core.c **** #ifdef USB_OTG_INTERNAL_VBUS_ENABLED
 353:../Libraries/STM32_USB_OTG_Driver/src/usb_core.c ****     usbcfg.b.ulpi_ext_vbus_drv = 0; /* Use internal VBUS */
 354:../Libraries/STM32_USB_OTG_Driver/src/usb_core.c **** #else
 355:../Libraries/STM32_USB_OTG_Driver/src/usb_core.c **** #ifdef USB_OTG_EXTERNAL_VBUS_ENABLED    
 356:../Libraries/STM32_USB_OTG_Driver/src/usb_core.c ****     usbcfg.b.ulpi_ext_vbus_drv = 1; /* Use external VBUS */
 357:../Libraries/STM32_USB_OTG_Driver/src/usb_core.c **** #endif
 358:../Libraries/STM32_USB_OTG_Driver/src/usb_core.c **** #endif 
 359:../Libraries/STM32_USB_OTG_Driver/src/usb_core.c ****     usbcfg.b.term_sel_dl_pulse = 0; /* Data line pulsing using utmi_txvalid */    
 683              		.loc 1 359 0
 684 03ea 3B69     		ldr	r3, [r7, #16]
 685 03ec 6FF39653 		bfc	r3, #22, #1
 686 03f0 3B61     		str	r3, [r7, #16]
 360:../Libraries/STM32_USB_OTG_Driver/src/usb_core.c ****     
 361:../Libraries/STM32_USB_OTG_Driver/src/usb_core.c ****     usbcfg.b.ulpi_fsls = 0;
 687              		.loc 1 361 0
 688 03f2 3B69     		ldr	r3, [r7, #16]
 689 03f4 6FF35143 		bfc	r3, #17, #1
 690 03f8 3B61     		str	r3, [r7, #16]
 362:../Libraries/STM32_USB_OTG_Driver/src/usb_core.c ****     usbcfg.b.ulpi_clk_sus_m = 0;
 691              		.loc 1 362 0
 692 03fa 3B69     		ldr	r3, [r7, #16]
 693 03fc 6FF3D343 		bfc	r3, #19, #1
 694 0400 3B61     		str	r3, [r7, #16]
 363:../Libraries/STM32_USB_OTG_Driver/src/usb_core.c ****     USB_OTG_WRITE_REG32 (&pdev->regs.GREGS->GUSBCFG, usbcfg.d32);
 695              		.loc 1 363 0
 696 0402 7B68     		ldr	r3, [r7, #4]
 697 0404 DB68     		ldr	r3, [r3, #12]
 698 0406 3A69     		ldr	r2, [r7, #16]
 699 0408 DA60     		str	r2, [r3, #12]
 364:../Libraries/STM32_USB_OTG_Driver/src/usb_core.c ****     
 365:../Libraries/STM32_USB_OTG_Driver/src/usb_core.c ****     /* Reset after a PHY select  */
 366:../Libraries/STM32_USB_OTG_Driver/src/usb_core.c ****     USB_OTG_CoreReset(pdev);
 700              		.loc 1 366 0
 701 040a 7868     		ldr	r0, [r7, #4]
 702 040c FFF71AFE 		bl	USB_OTG_CoreReset
 367:../Libraries/STM32_USB_OTG_Driver/src/usb_core.c ****     
 368:../Libraries/STM32_USB_OTG_Driver/src/usb_core.c ****     if(pdev->cfg.dma_enable == 1)
 703              		.loc 1 368 0
 704 0410 7B68     		ldr	r3, [r7, #4]
 705 0412 DB78     		ldrb	r3, [r3, #3]	@ zero_extendqisi2
 706 0414 012B     		cmp	r3, #1
 707 0416 40D1     		bne	.L38
 369:../Libraries/STM32_USB_OTG_Driver/src/usb_core.c ****     {
 370:../Libraries/STM32_USB_OTG_Driver/src/usb_core.c ****       
 371:../Libraries/STM32_USB_OTG_Driver/src/usb_core.c ****       ahbcfg.b.hburstlen = 5; /* 64 x 32-bits*/
 708              		.loc 1 371 0
 709 0418 BB68     		ldr	r3, [r7, #8]
 710 041a 4FF00502 		mov	r2, #5
 711 041e 62F34403 		bfi	r3, r2, #1, #4
 712 0422 BB60     		str	r3, [r7, #8]
 372:../Libraries/STM32_USB_OTG_Driver/src/usb_core.c ****       ahbcfg.b.dmaenable = 1;
 713              		.loc 1 372 0
 714 0424 BB68     		ldr	r3, [r7, #8]
 715 0426 43F02003 		orr	r3, r3, #32
 716 042a BB60     		str	r3, [r7, #8]
 373:../Libraries/STM32_USB_OTG_Driver/src/usb_core.c ****       USB_OTG_WRITE_REG32(&pdev->regs.GREGS->GAHBCFG, ahbcfg.d32);
 717              		.loc 1 373 0
 718 042c 7B68     		ldr	r3, [r7, #4]
 719 042e DB68     		ldr	r3, [r3, #12]
 720 0430 BA68     		ldr	r2, [r7, #8]
 721 0432 9A60     		str	r2, [r3, #8]
 722 0434 31E0     		b	.L38
 723              	.L36:
 374:../Libraries/STM32_USB_OTG_Driver/src/usb_core.c ****       
 375:../Libraries/STM32_USB_OTG_Driver/src/usb_core.c ****     }    
 376:../Libraries/STM32_USB_OTG_Driver/src/usb_core.c ****   }
 377:../Libraries/STM32_USB_OTG_Driver/src/usb_core.c ****   else /* FS interface (embedded Phy) */
 378:../Libraries/STM32_USB_OTG_Driver/src/usb_core.c ****   {
 379:../Libraries/STM32_USB_OTG_Driver/src/usb_core.c ****     
 380:../Libraries/STM32_USB_OTG_Driver/src/usb_core.c ****     usbcfg.d32 = USB_OTG_READ_REG32(&pdev->regs.GREGS->GUSBCFG);;
 724              		.loc 1 380 0
 725 0436 7B68     		ldr	r3, [r7, #4]
 726 0438 DB68     		ldr	r3, [r3, #12]
 727 043a DB68     		ldr	r3, [r3, #12]
 728 043c 3B61     		str	r3, [r7, #16]
 381:../Libraries/STM32_USB_OTG_Driver/src/usb_core.c ****     usbcfg.b.physel  = 1; /* FS Interface */
 729              		.loc 1 381 0
 730 043e 3B69     		ldr	r3, [r7, #16]
 731 0440 43F04003 		orr	r3, r3, #64
 732 0444 3B61     		str	r3, [r7, #16]
 382:../Libraries/STM32_USB_OTG_Driver/src/usb_core.c ****     USB_OTG_WRITE_REG32 (&pdev->regs.GREGS->GUSBCFG, usbcfg.d32);
 733              		.loc 1 382 0
 734 0446 7B68     		ldr	r3, [r7, #4]
 735 0448 DB68     		ldr	r3, [r3, #12]
 736 044a 3A69     		ldr	r2, [r7, #16]
 737 044c DA60     		str	r2, [r3, #12]
 383:../Libraries/STM32_USB_OTG_Driver/src/usb_core.c ****     /* Reset after a PHY select and set Host mode */
 384:../Libraries/STM32_USB_OTG_Driver/src/usb_core.c ****     USB_OTG_CoreReset(pdev);
 738              		.loc 1 384 0
 739 044e 7868     		ldr	r0, [r7, #4]
 740 0450 FFF7F8FD 		bl	USB_OTG_CoreReset
 385:../Libraries/STM32_USB_OTG_Driver/src/usb_core.c ****     /* Deactivate the power down*/
 386:../Libraries/STM32_USB_OTG_Driver/src/usb_core.c ****     gccfg.d32 = 0;
 741              		.loc 1 386 0
 742 0454 4FF00003 		mov	r3, #0
 743 0458 FB60     		str	r3, [r7, #12]
 387:../Libraries/STM32_USB_OTG_Driver/src/usb_core.c ****     gccfg.b.pwdn = 1;
 744              		.loc 1 387 0
 745 045a FB68     		ldr	r3, [r7, #12]
 746 045c 43F48033 		orr	r3, r3, #65536
 747 0460 FB60     		str	r3, [r7, #12]
 388:../Libraries/STM32_USB_OTG_Driver/src/usb_core.c ****     
 389:../Libraries/STM32_USB_OTG_Driver/src/usb_core.c ****     gccfg.b.vbussensingA = 1 ;
 748              		.loc 1 389 0
 749 0462 FB68     		ldr	r3, [r7, #12]
 750 0464 43F48023 		orr	r3, r3, #262144
 751 0468 FB60     		str	r3, [r7, #12]
 390:../Libraries/STM32_USB_OTG_Driver/src/usb_core.c ****     gccfg.b.vbussensingB = 1 ;     
 752              		.loc 1 390 0
 753 046a FB68     		ldr	r3, [r7, #12]
 754 046c 43F40023 		orr	r3, r3, #524288
 755 0470 FB60     		str	r3, [r7, #12]
 391:../Libraries/STM32_USB_OTG_Driver/src/usb_core.c **** #ifndef VBUS_SENSING_ENABLED
 392:../Libraries/STM32_USB_OTG_Driver/src/usb_core.c ****     gccfg.b.disablevbussensing = 1; 
 756              		.loc 1 392 0
 757 0472 FB68     		ldr	r3, [r7, #12]
 758 0474 43F40013 		orr	r3, r3, #2097152
 759 0478 FB60     		str	r3, [r7, #12]
 393:../Libraries/STM32_USB_OTG_Driver/src/usb_core.c **** #endif    
 394:../Libraries/STM32_USB_OTG_Driver/src/usb_core.c ****     
 395:../Libraries/STM32_USB_OTG_Driver/src/usb_core.c ****     if(pdev->cfg.Sof_output)
 760              		.loc 1 395 0
 761 047a 7B68     		ldr	r3, [r7, #4]
 762 047c 5B7A     		ldrb	r3, [r3, #9]	@ zero_extendqisi2
 763 047e 002B     		cmp	r3, #0
 764 0480 03D0     		beq	.L39
 396:../Libraries/STM32_USB_OTG_Driver/src/usb_core.c ****     {
 397:../Libraries/STM32_USB_OTG_Driver/src/usb_core.c ****       gccfg.b.sofouten = 1;  
 765              		.loc 1 397 0
 766 0482 FB68     		ldr	r3, [r7, #12]
 767 0484 43F48013 		orr	r3, r3, #1048576
 768 0488 FB60     		str	r3, [r7, #12]
 769              	.L39:
 398:../Libraries/STM32_USB_OTG_Driver/src/usb_core.c ****     }
 399:../Libraries/STM32_USB_OTG_Driver/src/usb_core.c ****     
 400:../Libraries/STM32_USB_OTG_Driver/src/usb_core.c ****     USB_OTG_WRITE_REG32 (&pdev->regs.GREGS->GCCFG, gccfg.d32);
 770              		.loc 1 400 0
 771 048a 7B68     		ldr	r3, [r7, #4]
 772 048c DB68     		ldr	r3, [r3, #12]
 773 048e FA68     		ldr	r2, [r7, #12]
 774 0490 9A63     		str	r2, [r3, #56]
 401:../Libraries/STM32_USB_OTG_Driver/src/usb_core.c ****     USB_OTG_BSP_mDelay(20);
 775              		.loc 1 401 0
 776 0492 4FF01400 		mov	r0, #20
 777 0496 FFF7FEFF 		bl	USB_OTG_BSP_mDelay
 778              	.L38:
 402:../Libraries/STM32_USB_OTG_Driver/src/usb_core.c ****   }
 403:../Libraries/STM32_USB_OTG_Driver/src/usb_core.c ****   /* case the HS core is working in FS mode */
 404:../Libraries/STM32_USB_OTG_Driver/src/usb_core.c ****   if(pdev->cfg.dma_enable == 1)
 779              		.loc 1 404 0
 780 049a 7B68     		ldr	r3, [r7, #4]
 781 049c DB78     		ldrb	r3, [r3, #3]	@ zero_extendqisi2
 782 049e 012B     		cmp	r3, #1
 783 04a0 11D1     		bne	.L40
 405:../Libraries/STM32_USB_OTG_Driver/src/usb_core.c ****   {
 406:../Libraries/STM32_USB_OTG_Driver/src/usb_core.c ****     
 407:../Libraries/STM32_USB_OTG_Driver/src/usb_core.c ****     ahbcfg.d32 = USB_OTG_READ_REG32(&pdev->regs.GREGS->GAHBCFG);
 784              		.loc 1 407 0
 785 04a2 7B68     		ldr	r3, [r7, #4]
 786 04a4 DB68     		ldr	r3, [r3, #12]
 787 04a6 9B68     		ldr	r3, [r3, #8]
 788 04a8 BB60     		str	r3, [r7, #8]
 408:../Libraries/STM32_USB_OTG_Driver/src/usb_core.c ****     ahbcfg.b.hburstlen = 5; /* 64 x 32-bits*/
 789              		.loc 1 408 0
 790 04aa BB68     		ldr	r3, [r7, #8]
 791 04ac 4FF00502 		mov	r2, #5
 792 04b0 62F34403 		bfi	r3, r2, #1, #4
 793 04b4 BB60     		str	r3, [r7, #8]
 409:../Libraries/STM32_USB_OTG_Driver/src/usb_core.c ****     ahbcfg.b.dmaenable = 1;
 794              		.loc 1 409 0
 795 04b6 BB68     		ldr	r3, [r7, #8]
 796 04b8 43F02003 		orr	r3, r3, #32
 797 04bc BB60     		str	r3, [r7, #8]
 410:../Libraries/STM32_USB_OTG_Driver/src/usb_core.c ****     USB_OTG_WRITE_REG32(&pdev->regs.GREGS->GAHBCFG, ahbcfg.d32);
 798              		.loc 1 410 0
 799 04be 7B68     		ldr	r3, [r7, #4]
 800 04c0 DB68     		ldr	r3, [r3, #12]
 801 04c2 BA68     		ldr	r2, [r7, #8]
 802 04c4 9A60     		str	r2, [r3, #8]
 803              	.L40:
 411:../Libraries/STM32_USB_OTG_Driver/src/usb_core.c ****     
 412:../Libraries/STM32_USB_OTG_Driver/src/usb_core.c ****   }
 413:../Libraries/STM32_USB_OTG_Driver/src/usb_core.c ****   /* initialize OTG features */
 414:../Libraries/STM32_USB_OTG_Driver/src/usb_core.c **** #ifdef  USE_OTG_MODE
 415:../Libraries/STM32_USB_OTG_Driver/src/usb_core.c ****   usbcfg.d32 = USB_OTG_READ_REG32(&pdev->regs.GREGS->GUSBCFG);
 416:../Libraries/STM32_USB_OTG_Driver/src/usb_core.c ****   usbcfg.b.hnpcap = 1;
 417:../Libraries/STM32_USB_OTG_Driver/src/usb_core.c ****   usbcfg.b.srpcap = 1;
 418:../Libraries/STM32_USB_OTG_Driver/src/usb_core.c ****   USB_OTG_WRITE_REG32(&pdev->regs.GREGS->GUSBCFG, usbcfg.d32);
 419:../Libraries/STM32_USB_OTG_Driver/src/usb_core.c ****   USB_OTG_EnableCommonInt(pdev);
 420:../Libraries/STM32_USB_OTG_Driver/src/usb_core.c **** #endif
 421:../Libraries/STM32_USB_OTG_Driver/src/usb_core.c ****   return status;
 804              		.loc 1 421 0
 805 04c6 FB7D     		ldrb	r3, [r7, #23]	@ zero_extendqisi2
 422:../Libraries/STM32_USB_OTG_Driver/src/usb_core.c **** }
 806              		.loc 1 422 0
 807 04c8 1846     		mov	r0, r3
 808 04ca 07F11807 		add	r7, r7, #24
 809 04ce BD46     		mov	sp, r7
 810 04d0 80BD     		pop	{r7, pc}
 811              		.cfi_endproc
 812              	.LFE115:
 814 04d2 00BF     		.align	2
 815              		.global	USB_OTG_EnableGlobalInt
 816              		.thumb
 817              		.thumb_func
 819              	USB_OTG_EnableGlobalInt:
 820              	.LFB116:
 423:../Libraries/STM32_USB_OTG_Driver/src/usb_core.c **** /**
 424:../Libraries/STM32_USB_OTG_Driver/src/usb_core.c **** * @brief  USB_OTG_EnableGlobalInt
 425:../Libraries/STM32_USB_OTG_Driver/src/usb_core.c **** *         Enables the controller's Global Int in the AHB Config reg
 426:../Libraries/STM32_USB_OTG_Driver/src/usb_core.c **** * @param  pdev : Selected device
 427:../Libraries/STM32_USB_OTG_Driver/src/usb_core.c **** * @retval USB_OTG_STS : status
 428:../Libraries/STM32_USB_OTG_Driver/src/usb_core.c **** */
 429:../Libraries/STM32_USB_OTG_Driver/src/usb_core.c **** USB_OTG_STS USB_OTG_EnableGlobalInt(USB_OTG_CORE_HANDLE *pdev)
 430:../Libraries/STM32_USB_OTG_Driver/src/usb_core.c **** {
 821              		.loc 1 430 0
 822              		.cfi_startproc
 823              		@ args = 0, pretend = 0, frame = 16
 824              		@ frame_needed = 1, uses_anonymous_args = 0
 825              		@ link register save eliminated.
 826 04d4 80B4     		push	{r7}
 827              	.LCFI18:
 828              		.cfi_def_cfa_offset 4
 829              		.cfi_offset 7, -4
 830 04d6 85B0     		sub	sp, sp, #20
 831              	.LCFI19:
 832              		.cfi_def_cfa_offset 24
 833 04d8 00AF     		add	r7, sp, #0
 834              	.LCFI20:
 835              		.cfi_def_cfa_register 7
 836 04da 7860     		str	r0, [r7, #4]
 431:../Libraries/STM32_USB_OTG_Driver/src/usb_core.c ****   USB_OTG_STS status = USB_OTG_OK;
 837              		.loc 1 431 0
 838 04dc 4FF00003 		mov	r3, #0
 839 04e0 FB73     		strb	r3, [r7, #15]
 432:../Libraries/STM32_USB_OTG_Driver/src/usb_core.c ****   USB_OTG_GAHBCFG_TypeDef  ahbcfg;
 433:../Libraries/STM32_USB_OTG_Driver/src/usb_core.c ****   
 434:../Libraries/STM32_USB_OTG_Driver/src/usb_core.c ****   ahbcfg.d32 = 0;
 840              		.loc 1 434 0
 841 04e2 4FF00003 		mov	r3, #0
 842 04e6 BB60     		str	r3, [r7, #8]
 435:../Libraries/STM32_USB_OTG_Driver/src/usb_core.c ****   ahbcfg.b.glblintrmsk = 1; /* Enable interrupts */
 843              		.loc 1 435 0
 844 04e8 BB68     		ldr	r3, [r7, #8]
 845 04ea 43F00103 		orr	r3, r3, #1
 846 04ee BB60     		str	r3, [r7, #8]
 436:../Libraries/STM32_USB_OTG_Driver/src/usb_core.c ****   USB_OTG_MODIFY_REG32(&pdev->regs.GREGS->GAHBCFG, 0, ahbcfg.d32);
 847              		.loc 1 436 0
 848 04f0 7B68     		ldr	r3, [r7, #4]
 849 04f2 DB68     		ldr	r3, [r3, #12]
 850 04f4 7A68     		ldr	r2, [r7, #4]
 851 04f6 D268     		ldr	r2, [r2, #12]
 852 04f8 9168     		ldr	r1, [r2, #8]
 853 04fa BA68     		ldr	r2, [r7, #8]
 854 04fc 0A43     		orrs	r2, r2, r1
 855 04fe 9A60     		str	r2, [r3, #8]
 437:../Libraries/STM32_USB_OTG_Driver/src/usb_core.c ****   return status;
 856              		.loc 1 437 0
 857 0500 FB7B     		ldrb	r3, [r7, #15]	@ zero_extendqisi2
 438:../Libraries/STM32_USB_OTG_Driver/src/usb_core.c **** }
 858              		.loc 1 438 0
 859 0502 1846     		mov	r0, r3
 860 0504 07F11407 		add	r7, r7, #20
 861 0508 BD46     		mov	sp, r7
 862 050a 80BC     		pop	{r7}
 863 050c 7047     		bx	lr
 864              		.cfi_endproc
 865              	.LFE116:
 867 050e 00BF     		.align	2
 868              		.global	USB_OTG_DisableGlobalInt
 869              		.thumb
 870              		.thumb_func
 872              	USB_OTG_DisableGlobalInt:
 873              	.LFB117:
 439:../Libraries/STM32_USB_OTG_Driver/src/usb_core.c **** 
 440:../Libraries/STM32_USB_OTG_Driver/src/usb_core.c **** 
 441:../Libraries/STM32_USB_OTG_Driver/src/usb_core.c **** /**
 442:../Libraries/STM32_USB_OTG_Driver/src/usb_core.c **** * @brief  USB_OTG_DisableGlobalInt
 443:../Libraries/STM32_USB_OTG_Driver/src/usb_core.c **** *         Enables the controller's Global Int in the AHB Config reg
 444:../Libraries/STM32_USB_OTG_Driver/src/usb_core.c **** * @param  pdev : Selected device
 445:../Libraries/STM32_USB_OTG_Driver/src/usb_core.c **** * @retval USB_OTG_STS : status
 446:../Libraries/STM32_USB_OTG_Driver/src/usb_core.c **** */
 447:../Libraries/STM32_USB_OTG_Driver/src/usb_core.c **** USB_OTG_STS USB_OTG_DisableGlobalInt(USB_OTG_CORE_HANDLE *pdev)
 448:../Libraries/STM32_USB_OTG_Driver/src/usb_core.c **** {
 874              		.loc 1 448 0
 875              		.cfi_startproc
 876              		@ args = 0, pretend = 0, frame = 16
 877              		@ frame_needed = 1, uses_anonymous_args = 0
 878              		@ link register save eliminated.
 879 0510 80B4     		push	{r7}
 880              	.LCFI21:
 881              		.cfi_def_cfa_offset 4
 882              		.cfi_offset 7, -4
 883 0512 85B0     		sub	sp, sp, #20
 884              	.LCFI22:
 885              		.cfi_def_cfa_offset 24
 886 0514 00AF     		add	r7, sp, #0
 887              	.LCFI23:
 888              		.cfi_def_cfa_register 7
 889 0516 7860     		str	r0, [r7, #4]
 449:../Libraries/STM32_USB_OTG_Driver/src/usb_core.c ****   USB_OTG_STS status = USB_OTG_OK;
 890              		.loc 1 449 0
 891 0518 4FF00003 		mov	r3, #0
 892 051c FB73     		strb	r3, [r7, #15]
 450:../Libraries/STM32_USB_OTG_Driver/src/usb_core.c ****   USB_OTG_GAHBCFG_TypeDef  ahbcfg;
 451:../Libraries/STM32_USB_OTG_Driver/src/usb_core.c ****   ahbcfg.d32 = 0;
 893              		.loc 1 451 0
 894 051e 4FF00003 		mov	r3, #0
 895 0522 BB60     		str	r3, [r7, #8]
 452:../Libraries/STM32_USB_OTG_Driver/src/usb_core.c ****   ahbcfg.b.glblintrmsk = 1; /* Enable interrupts */
 896              		.loc 1 452 0
 897 0524 BB68     		ldr	r3, [r7, #8]
 898 0526 43F00103 		orr	r3, r3, #1
 899 052a BB60     		str	r3, [r7, #8]
 453:../Libraries/STM32_USB_OTG_Driver/src/usb_core.c ****   USB_OTG_MODIFY_REG32(&pdev->regs.GREGS->GAHBCFG, ahbcfg.d32, 0);
 900              		.loc 1 453 0
 901 052c 7B68     		ldr	r3, [r7, #4]
 902 052e DB68     		ldr	r3, [r3, #12]
 903 0530 7A68     		ldr	r2, [r7, #4]
 904 0532 D268     		ldr	r2, [r2, #12]
 905 0534 9168     		ldr	r1, [r2, #8]
 906 0536 BA68     		ldr	r2, [r7, #8]
 907 0538 6FEA0202 		mvn	r2, r2
 908 053c 0A40     		ands	r2, r2, r1
 909 053e 9A60     		str	r2, [r3, #8]
 454:../Libraries/STM32_USB_OTG_Driver/src/usb_core.c ****   return status;
 910              		.loc 1 454 0
 911 0540 FB7B     		ldrb	r3, [r7, #15]	@ zero_extendqisi2
 455:../Libraries/STM32_USB_OTG_Driver/src/usb_core.c **** }
 912              		.loc 1 455 0
 913 0542 1846     		mov	r0, r3
 914 0544 07F11407 		add	r7, r7, #20
 915 0548 BD46     		mov	sp, r7
 916 054a 80BC     		pop	{r7}
 917 054c 7047     		bx	lr
 918              		.cfi_endproc
 919              	.LFE117:
 921 054e 00BF     		.align	2
 922              		.global	USB_OTG_FlushTxFifo
 923              		.thumb
 924              		.thumb_func
 926              	USB_OTG_FlushTxFifo:
 927              	.LFB118:
 456:../Libraries/STM32_USB_OTG_Driver/src/usb_core.c **** 
 457:../Libraries/STM32_USB_OTG_Driver/src/usb_core.c **** 
 458:../Libraries/STM32_USB_OTG_Driver/src/usb_core.c **** /**
 459:../Libraries/STM32_USB_OTG_Driver/src/usb_core.c **** * @brief  USB_OTG_FlushTxFifo : Flush a Tx FIFO
 460:../Libraries/STM32_USB_OTG_Driver/src/usb_core.c **** * @param  pdev : Selected device
 461:../Libraries/STM32_USB_OTG_Driver/src/usb_core.c **** * @param  num : FO num
 462:../Libraries/STM32_USB_OTG_Driver/src/usb_core.c **** * @retval USB_OTG_STS : status
 463:../Libraries/STM32_USB_OTG_Driver/src/usb_core.c **** */
 464:../Libraries/STM32_USB_OTG_Driver/src/usb_core.c **** USB_OTG_STS USB_OTG_FlushTxFifo (USB_OTG_CORE_HANDLE *pdev , uint32_t num )
 465:../Libraries/STM32_USB_OTG_Driver/src/usb_core.c **** {
 928              		.loc 1 465 0
 929              		.cfi_startproc
 930              		@ args = 0, pretend = 0, frame = 24
 931              		@ frame_needed = 1, uses_anonymous_args = 0
 932 0550 80B5     		push	{r7, lr}
 933              	.LCFI24:
 934              		.cfi_def_cfa_offset 8
 935              		.cfi_offset 7, -8
 936              		.cfi_offset 14, -4
 937 0552 86B0     		sub	sp, sp, #24
 938              	.LCFI25:
 939              		.cfi_def_cfa_offset 32
 940 0554 00AF     		add	r7, sp, #0
 941              	.LCFI26:
 942              		.cfi_def_cfa_register 7
 943 0556 7860     		str	r0, [r7, #4]
 944 0558 3960     		str	r1, [r7, #0]
 466:../Libraries/STM32_USB_OTG_Driver/src/usb_core.c ****   USB_OTG_STS status = USB_OTG_OK;
 945              		.loc 1 466 0
 946 055a 4FF00003 		mov	r3, #0
 947 055e FB74     		strb	r3, [r7, #19]
 467:../Libraries/STM32_USB_OTG_Driver/src/usb_core.c ****   __IO USB_OTG_GRSTCTL_TypeDef  greset;
 468:../Libraries/STM32_USB_OTG_Driver/src/usb_core.c ****   
 469:../Libraries/STM32_USB_OTG_Driver/src/usb_core.c ****   uint32_t count = 0;
 948              		.loc 1 469 0
 949 0560 4FF00003 		mov	r3, #0
 950 0564 7B61     		str	r3, [r7, #20]
 470:../Libraries/STM32_USB_OTG_Driver/src/usb_core.c ****   greset.d32 = 0;
 951              		.loc 1 470 0
 952 0566 4FF00003 		mov	r3, #0
 953 056a FB60     		str	r3, [r7, #12]
 471:../Libraries/STM32_USB_OTG_Driver/src/usb_core.c ****   greset.b.txfflsh = 1;
 954              		.loc 1 471 0
 955 056c FB68     		ldr	r3, [r7, #12]
 956 056e 43F02003 		orr	r3, r3, #32
 957 0572 FB60     		str	r3, [r7, #12]
 472:../Libraries/STM32_USB_OTG_Driver/src/usb_core.c ****   greset.b.txfnum  = num;
 958              		.loc 1 472 0
 959 0574 3B68     		ldr	r3, [r7, #0]
 960 0576 DBB2     		uxtb	r3, r3
 961 0578 03F01F03 		and	r3, r3, #31
 962 057c DAB2     		uxtb	r2, r3
 963 057e FB68     		ldr	r3, [r7, #12]
 964 0580 62F38A13 		bfi	r3, r2, #6, #5
 965 0584 FB60     		str	r3, [r7, #12]
 473:../Libraries/STM32_USB_OTG_Driver/src/usb_core.c ****   USB_OTG_WRITE_REG32( &pdev->regs.GREGS->GRSTCTL, greset.d32 );
 966              		.loc 1 473 0
 967 0586 7B68     		ldr	r3, [r7, #4]
 968 0588 DB68     		ldr	r3, [r3, #12]
 969 058a FA68     		ldr	r2, [r7, #12]
 970 058c 1A61     		str	r2, [r3, #16]
 971              	.L49:
 474:../Libraries/STM32_USB_OTG_Driver/src/usb_core.c ****   do
 475:../Libraries/STM32_USB_OTG_Driver/src/usb_core.c ****   {
 476:../Libraries/STM32_USB_OTG_Driver/src/usb_core.c ****     greset.d32 = USB_OTG_READ_REG32( &pdev->regs.GREGS->GRSTCTL);
 972              		.loc 1 476 0
 973 058e 7B68     		ldr	r3, [r7, #4]
 974 0590 DB68     		ldr	r3, [r3, #12]
 975 0592 1B69     		ldr	r3, [r3, #16]
 976 0594 FB60     		str	r3, [r7, #12]
 477:../Libraries/STM32_USB_OTG_Driver/src/usb_core.c ****     if (++count > 200000)
 977              		.loc 1 477 0
 978 0596 7B69     		ldr	r3, [r7, #20]
 979 0598 03F10103 		add	r3, r3, #1
 980 059c 7B61     		str	r3, [r7, #20]
 981 059e 7A69     		ldr	r2, [r7, #20]
 982 05a0 0A4B     		ldr	r3, .L52
 983 05a2 9A42     		cmp	r2, r3
 984 05a4 06D8     		bhi	.L51
 985              	.L47:
 478:../Libraries/STM32_USB_OTG_Driver/src/usb_core.c ****     {
 479:../Libraries/STM32_USB_OTG_Driver/src/usb_core.c ****       break;
 480:../Libraries/STM32_USB_OTG_Driver/src/usb_core.c ****     }
 481:../Libraries/STM32_USB_OTG_Driver/src/usb_core.c ****   }
 482:../Libraries/STM32_USB_OTG_Driver/src/usb_core.c ****   while (greset.b.txfflsh == 1);
 986              		.loc 1 482 0
 987 05a6 FB68     		ldr	r3, [r7, #12]
 988 05a8 C3F34013 		ubfx	r3, r3, #5, #1
 989 05ac DBB2     		uxtb	r3, r3
 990 05ae 012B     		cmp	r3, #1
 991 05b0 EDD0     		beq	.L49
 992 05b2 00E0     		b	.L48
 993              	.L51:
 479:../Libraries/STM32_USB_OTG_Driver/src/usb_core.c ****       break;
 994              		.loc 1 479 0
 995 05b4 00BF     		nop
 996              	.L48:
 483:../Libraries/STM32_USB_OTG_Driver/src/usb_core.c ****   /* Wait for 3 PHY Clocks*/
 484:../Libraries/STM32_USB_OTG_Driver/src/usb_core.c ****   USB_OTG_BSP_uDelay(3);
 997              		.loc 1 484 0
 998 05b6 4FF00300 		mov	r0, #3
 999 05ba FFF7FEFF 		bl	USB_OTG_BSP_uDelay
 485:../Libraries/STM32_USB_OTG_Driver/src/usb_core.c ****   return status;
 1000              		.loc 1 485 0
 1001 05be FB7C     		ldrb	r3, [r7, #19]	@ zero_extendqisi2
 486:../Libraries/STM32_USB_OTG_Driver/src/usb_core.c **** }
 1002              		.loc 1 486 0
 1003 05c0 1846     		mov	r0, r3
 1004 05c2 07F11807 		add	r7, r7, #24
 1005 05c6 BD46     		mov	sp, r7
 1006 05c8 80BD     		pop	{r7, pc}
 1007              	.L53:
 1008 05ca 00BF     		.align	2
 1009              	.L52:
 1010 05cc 400D0300 		.word	200000
 1011              		.cfi_endproc
 1012              	.LFE118:
 1014              		.align	2
 1015              		.global	USB_OTG_FlushRxFifo
 1016              		.thumb
 1017              		.thumb_func
 1019              	USB_OTG_FlushRxFifo:
 1020              	.LFB119:
 487:../Libraries/STM32_USB_OTG_Driver/src/usb_core.c **** 
 488:../Libraries/STM32_USB_OTG_Driver/src/usb_core.c **** 
 489:../Libraries/STM32_USB_OTG_Driver/src/usb_core.c **** /**
 490:../Libraries/STM32_USB_OTG_Driver/src/usb_core.c **** * @brief  USB_OTG_FlushRxFifo : Flush a Rx FIFO
 491:../Libraries/STM32_USB_OTG_Driver/src/usb_core.c **** * @param  pdev : Selected device
 492:../Libraries/STM32_USB_OTG_Driver/src/usb_core.c **** * @retval USB_OTG_STS : status
 493:../Libraries/STM32_USB_OTG_Driver/src/usb_core.c **** */
 494:../Libraries/STM32_USB_OTG_Driver/src/usb_core.c **** USB_OTG_STS USB_OTG_FlushRxFifo( USB_OTG_CORE_HANDLE *pdev )
 495:../Libraries/STM32_USB_OTG_Driver/src/usb_core.c **** {
 1021              		.loc 1 495 0
 1022              		.cfi_startproc
 1023              		@ args = 0, pretend = 0, frame = 24
 1024              		@ frame_needed = 1, uses_anonymous_args = 0
 1025 05d0 80B5     		push	{r7, lr}
 1026              	.LCFI27:
 1027              		.cfi_def_cfa_offset 8
 1028              		.cfi_offset 7, -8
 1029              		.cfi_offset 14, -4
 1030 05d2 86B0     		sub	sp, sp, #24
 1031              	.LCFI28:
 1032              		.cfi_def_cfa_offset 32
 1033 05d4 00AF     		add	r7, sp, #0
 1034              	.LCFI29:
 1035              		.cfi_def_cfa_register 7
 1036 05d6 7860     		str	r0, [r7, #4]
 496:../Libraries/STM32_USB_OTG_Driver/src/usb_core.c ****   USB_OTG_STS status = USB_OTG_OK;
 1037              		.loc 1 496 0
 1038 05d8 4FF00003 		mov	r3, #0
 1039 05dc FB74     		strb	r3, [r7, #19]
 497:../Libraries/STM32_USB_OTG_Driver/src/usb_core.c ****   __IO USB_OTG_GRSTCTL_TypeDef  greset;
 498:../Libraries/STM32_USB_OTG_Driver/src/usb_core.c ****   uint32_t count = 0;
 1040              		.loc 1 498 0
 1041 05de 4FF00003 		mov	r3, #0
 1042 05e2 7B61     		str	r3, [r7, #20]
 499:../Libraries/STM32_USB_OTG_Driver/src/usb_core.c ****   
 500:../Libraries/STM32_USB_OTG_Driver/src/usb_core.c ****   greset.d32 = 0;
 1043              		.loc 1 500 0
 1044 05e4 4FF00003 		mov	r3, #0
 1045 05e8 FB60     		str	r3, [r7, #12]
 501:../Libraries/STM32_USB_OTG_Driver/src/usb_core.c ****   greset.b.rxfflsh = 1;
 1046              		.loc 1 501 0
 1047 05ea FB68     		ldr	r3, [r7, #12]
 1048 05ec 43F01003 		orr	r3, r3, #16
 1049 05f0 FB60     		str	r3, [r7, #12]
 502:../Libraries/STM32_USB_OTG_Driver/src/usb_core.c ****   USB_OTG_WRITE_REG32( &pdev->regs.GREGS->GRSTCTL, greset.d32 );
 1050              		.loc 1 502 0
 1051 05f2 7B68     		ldr	r3, [r7, #4]
 1052 05f4 DB68     		ldr	r3, [r3, #12]
 1053 05f6 FA68     		ldr	r2, [r7, #12]
 1054 05f8 1A61     		str	r2, [r3, #16]
 1055              	.L57:
 503:../Libraries/STM32_USB_OTG_Driver/src/usb_core.c ****   do
 504:../Libraries/STM32_USB_OTG_Driver/src/usb_core.c ****   {
 505:../Libraries/STM32_USB_OTG_Driver/src/usb_core.c ****     greset.d32 = USB_OTG_READ_REG32( &pdev->regs.GREGS->GRSTCTL);
 1056              		.loc 1 505 0
 1057 05fa 7B68     		ldr	r3, [r7, #4]
 1058 05fc DB68     		ldr	r3, [r3, #12]
 1059 05fe 1B69     		ldr	r3, [r3, #16]
 1060 0600 FB60     		str	r3, [r7, #12]
 506:../Libraries/STM32_USB_OTG_Driver/src/usb_core.c ****     if (++count > 200000)
 1061              		.loc 1 506 0
 1062 0602 7B69     		ldr	r3, [r7, #20]
 1063 0604 03F10103 		add	r3, r3, #1
 1064 0608 7B61     		str	r3, [r7, #20]
 1065 060a 7A69     		ldr	r2, [r7, #20]
 1066 060c 0A4B     		ldr	r3, .L60
 1067 060e 9A42     		cmp	r2, r3
 1068 0610 06D8     		bhi	.L59
 1069              	.L55:
 507:../Libraries/STM32_USB_OTG_Driver/src/usb_core.c ****     {
 508:../Libraries/STM32_USB_OTG_Driver/src/usb_core.c ****       break;
 509:../Libraries/STM32_USB_OTG_Driver/src/usb_core.c ****     }
 510:../Libraries/STM32_USB_OTG_Driver/src/usb_core.c ****   }
 511:../Libraries/STM32_USB_OTG_Driver/src/usb_core.c ****   while (greset.b.rxfflsh == 1);
 1070              		.loc 1 511 0
 1071 0612 FB68     		ldr	r3, [r7, #12]
 1072 0614 C3F30013 		ubfx	r3, r3, #4, #1
 1073 0618 DBB2     		uxtb	r3, r3
 1074 061a 012B     		cmp	r3, #1
 1075 061c EDD0     		beq	.L57
 1076 061e 00E0     		b	.L56
 1077              	.L59:
 508:../Libraries/STM32_USB_OTG_Driver/src/usb_core.c ****       break;
 1078              		.loc 1 508 0
 1079 0620 00BF     		nop
 1080              	.L56:
 512:../Libraries/STM32_USB_OTG_Driver/src/usb_core.c ****   /* Wait for 3 PHY Clocks*/
 513:../Libraries/STM32_USB_OTG_Driver/src/usb_core.c ****   USB_OTG_BSP_uDelay(3);
 1081              		.loc 1 513 0
 1082 0622 4FF00300 		mov	r0, #3
 1083 0626 FFF7FEFF 		bl	USB_OTG_BSP_uDelay
 514:../Libraries/STM32_USB_OTG_Driver/src/usb_core.c ****   return status;
 1084              		.loc 1 514 0
 1085 062a FB7C     		ldrb	r3, [r7, #19]	@ zero_extendqisi2
 515:../Libraries/STM32_USB_OTG_Driver/src/usb_core.c **** }
 1086              		.loc 1 515 0
 1087 062c 1846     		mov	r0, r3
 1088 062e 07F11807 		add	r7, r7, #24
 1089 0632 BD46     		mov	sp, r7
 1090 0634 80BD     		pop	{r7, pc}
 1091              	.L61:
 1092 0636 00BF     		.align	2
 1093              	.L60:
 1094 0638 400D0300 		.word	200000
 1095              		.cfi_endproc
 1096              	.LFE119:
 1098              		.align	2
 1099              		.global	USB_OTG_SetCurrentMode
 1100              		.thumb
 1101              		.thumb_func
 1103              	USB_OTG_SetCurrentMode:
 1104              	.LFB120:
 516:../Libraries/STM32_USB_OTG_Driver/src/usb_core.c **** 
 517:../Libraries/STM32_USB_OTG_Driver/src/usb_core.c **** 
 518:../Libraries/STM32_USB_OTG_Driver/src/usb_core.c **** /**
 519:../Libraries/STM32_USB_OTG_Driver/src/usb_core.c **** * @brief  USB_OTG_SetCurrentMode : Set ID line
 520:../Libraries/STM32_USB_OTG_Driver/src/usb_core.c **** * @param  pdev : Selected device
 521:../Libraries/STM32_USB_OTG_Driver/src/usb_core.c **** * @param  mode :  (Host/device)
 522:../Libraries/STM32_USB_OTG_Driver/src/usb_core.c **** * @retval USB_OTG_STS : status
 523:../Libraries/STM32_USB_OTG_Driver/src/usb_core.c **** */
 524:../Libraries/STM32_USB_OTG_Driver/src/usb_core.c **** USB_OTG_STS USB_OTG_SetCurrentMode(USB_OTG_CORE_HANDLE *pdev , uint8_t mode)
 525:../Libraries/STM32_USB_OTG_Driver/src/usb_core.c **** {
 1105              		.loc 1 525 0
 1106              		.cfi_startproc
 1107              		@ args = 0, pretend = 0, frame = 16
 1108              		@ frame_needed = 1, uses_anonymous_args = 0
 1109 063c 80B5     		push	{r7, lr}
 1110              	.LCFI30:
 1111              		.cfi_def_cfa_offset 8
 1112              		.cfi_offset 7, -8
 1113              		.cfi_offset 14, -4
 1114 063e 84B0     		sub	sp, sp, #16
 1115              	.LCFI31:
 1116              		.cfi_def_cfa_offset 24
 1117 0640 00AF     		add	r7, sp, #0
 1118              	.LCFI32:
 1119              		.cfi_def_cfa_register 7
 1120 0642 7860     		str	r0, [r7, #4]
 1121 0644 0B46     		mov	r3, r1
 1122 0646 FB70     		strb	r3, [r7, #3]
 526:../Libraries/STM32_USB_OTG_Driver/src/usb_core.c ****   USB_OTG_STS status = USB_OTG_OK;
 1123              		.loc 1 526 0
 1124 0648 4FF00003 		mov	r3, #0
 1125 064c FB73     		strb	r3, [r7, #15]
 527:../Libraries/STM32_USB_OTG_Driver/src/usb_core.c ****   USB_OTG_GUSBCFG_TypeDef  usbcfg;
 528:../Libraries/STM32_USB_OTG_Driver/src/usb_core.c ****   
 529:../Libraries/STM32_USB_OTG_Driver/src/usb_core.c ****   usbcfg.d32 = USB_OTG_READ_REG32(&pdev->regs.GREGS->GUSBCFG);
 1126              		.loc 1 529 0
 1127 064e 7B68     		ldr	r3, [r7, #4]
 1128 0650 DB68     		ldr	r3, [r3, #12]
 1129 0652 DB68     		ldr	r3, [r3, #12]
 1130 0654 BB60     		str	r3, [r7, #8]
 530:../Libraries/STM32_USB_OTG_Driver/src/usb_core.c ****   
 531:../Libraries/STM32_USB_OTG_Driver/src/usb_core.c ****   usbcfg.b.force_host = 0;
 1131              		.loc 1 531 0
 1132 0656 BB68     		ldr	r3, [r7, #8]
 1133 0658 6FF35D73 		bfc	r3, #29, #1
 1134 065c BB60     		str	r3, [r7, #8]
 532:../Libraries/STM32_USB_OTG_Driver/src/usb_core.c ****   usbcfg.b.force_dev = 0;
 1135              		.loc 1 532 0
 1136 065e BB68     		ldr	r3, [r7, #8]
 1137 0660 6FF39E73 		bfc	r3, #30, #1
 1138 0664 BB60     		str	r3, [r7, #8]
 533:../Libraries/STM32_USB_OTG_Driver/src/usb_core.c ****   
 534:../Libraries/STM32_USB_OTG_Driver/src/usb_core.c ****   if ( mode == HOST_MODE)
 1139              		.loc 1 534 0
 1140 0666 FB78     		ldrb	r3, [r7, #3]	@ zero_extendqisi2
 1141 0668 012B     		cmp	r3, #1
 1142 066a 04D1     		bne	.L63
 535:../Libraries/STM32_USB_OTG_Driver/src/usb_core.c ****   {
 536:../Libraries/STM32_USB_OTG_Driver/src/usb_core.c ****     usbcfg.b.force_host = 1;
 1143              		.loc 1 536 0
 1144 066c BB68     		ldr	r3, [r7, #8]
 1145 066e 43F00053 		orr	r3, r3, #536870912
 1146 0672 BB60     		str	r3, [r7, #8]
 1147 0674 06E0     		b	.L64
 1148              	.L63:
 537:../Libraries/STM32_USB_OTG_Driver/src/usb_core.c ****   }
 538:../Libraries/STM32_USB_OTG_Driver/src/usb_core.c ****   else if ( mode == DEVICE_MODE)
 1149              		.loc 1 538 0
 1150 0676 FB78     		ldrb	r3, [r7, #3]	@ zero_extendqisi2
 1151 0678 002B     		cmp	r3, #0
 1152 067a 03D1     		bne	.L64
 539:../Libraries/STM32_USB_OTG_Driver/src/usb_core.c ****   {
 540:../Libraries/STM32_USB_OTG_Driver/src/usb_core.c ****     usbcfg.b.force_dev = 1;
 1153              		.loc 1 540 0
 1154 067c BB68     		ldr	r3, [r7, #8]
 1155 067e 43F08043 		orr	r3, r3, #1073741824
 1156 0682 BB60     		str	r3, [r7, #8]
 1157              	.L64:
 541:../Libraries/STM32_USB_OTG_Driver/src/usb_core.c ****   }
 542:../Libraries/STM32_USB_OTG_Driver/src/usb_core.c ****   
 543:../Libraries/STM32_USB_OTG_Driver/src/usb_core.c ****   USB_OTG_WRITE_REG32(&pdev->regs.GREGS->GUSBCFG, usbcfg.d32);
 1158              		.loc 1 543 0
 1159 0684 7B68     		ldr	r3, [r7, #4]
 1160 0686 DB68     		ldr	r3, [r3, #12]
 1161 0688 BA68     		ldr	r2, [r7, #8]
 1162 068a DA60     		str	r2, [r3, #12]
 544:../Libraries/STM32_USB_OTG_Driver/src/usb_core.c ****   USB_OTG_BSP_mDelay(50);
 1163              		.loc 1 544 0
 1164 068c 4FF03200 		mov	r0, #50
 1165 0690 FFF7FEFF 		bl	USB_OTG_BSP_mDelay
 545:../Libraries/STM32_USB_OTG_Driver/src/usb_core.c ****   return status;
 1166              		.loc 1 545 0
 1167 0694 FB7B     		ldrb	r3, [r7, #15]	@ zero_extendqisi2
 546:../Libraries/STM32_USB_OTG_Driver/src/usb_core.c **** }
 1168              		.loc 1 546 0
 1169 0696 1846     		mov	r0, r3
 1170 0698 07F11007 		add	r7, r7, #16
 1171 069c BD46     		mov	sp, r7
 1172 069e 80BD     		pop	{r7, pc}
 1173              		.cfi_endproc
 1174              	.LFE120:
 1176              		.align	2
 1177              		.global	USB_OTG_GetMode
 1178              		.thumb
 1179              		.thumb_func
 1181              	USB_OTG_GetMode:
 1182              	.LFB121:
 547:../Libraries/STM32_USB_OTG_Driver/src/usb_core.c **** 
 548:../Libraries/STM32_USB_OTG_Driver/src/usb_core.c **** 
 549:../Libraries/STM32_USB_OTG_Driver/src/usb_core.c **** /**
 550:../Libraries/STM32_USB_OTG_Driver/src/usb_core.c **** * @brief  USB_OTG_GetMode : Get current mode
 551:../Libraries/STM32_USB_OTG_Driver/src/usb_core.c **** * @param  pdev : Selected device
 552:../Libraries/STM32_USB_OTG_Driver/src/usb_core.c **** * @retval current mode
 553:../Libraries/STM32_USB_OTG_Driver/src/usb_core.c **** */
 554:../Libraries/STM32_USB_OTG_Driver/src/usb_core.c **** uint32_t USB_OTG_GetMode(USB_OTG_CORE_HANDLE *pdev)
 555:../Libraries/STM32_USB_OTG_Driver/src/usb_core.c **** {
 1183              		.loc 1 555 0
 1184              		.cfi_startproc
 1185              		@ args = 0, pretend = 0, frame = 8
 1186              		@ frame_needed = 1, uses_anonymous_args = 0
 1187              		@ link register save eliminated.
 1188 06a0 80B4     		push	{r7}
 1189              	.LCFI33:
 1190              		.cfi_def_cfa_offset 4
 1191              		.cfi_offset 7, -4
 1192 06a2 83B0     		sub	sp, sp, #12
 1193              	.LCFI34:
 1194              		.cfi_def_cfa_offset 16
 1195 06a4 00AF     		add	r7, sp, #0
 1196              	.LCFI35:
 1197              		.cfi_def_cfa_register 7
 1198 06a6 7860     		str	r0, [r7, #4]
 556:../Libraries/STM32_USB_OTG_Driver/src/usb_core.c ****   return (USB_OTG_READ_REG32(&pdev->regs.GREGS->GINTSTS ) & 0x1);
 1199              		.loc 1 556 0
 1200 06a8 7B68     		ldr	r3, [r7, #4]
 1201 06aa DB68     		ldr	r3, [r3, #12]
 1202 06ac 5B69     		ldr	r3, [r3, #20]
 1203 06ae 03F00103 		and	r3, r3, #1
 557:../Libraries/STM32_USB_OTG_Driver/src/usb_core.c **** }
 1204              		.loc 1 557 0
 1205 06b2 1846     		mov	r0, r3
 1206 06b4 07F10C07 		add	r7, r7, #12
 1207 06b8 BD46     		mov	sp, r7
 1208 06ba 80BC     		pop	{r7}
 1209 06bc 7047     		bx	lr
 1210              		.cfi_endproc
 1211              	.LFE121:
 1213 06be 00BF     		.align	2
 1214              		.global	USB_OTG_IsDeviceMode
 1215              		.thumb
 1216              		.thumb_func
 1218              	USB_OTG_IsDeviceMode:
 1219              	.LFB122:
 558:../Libraries/STM32_USB_OTG_Driver/src/usb_core.c **** 
 559:../Libraries/STM32_USB_OTG_Driver/src/usb_core.c **** 
 560:../Libraries/STM32_USB_OTG_Driver/src/usb_core.c **** /**
 561:../Libraries/STM32_USB_OTG_Driver/src/usb_core.c **** * @brief  USB_OTG_IsDeviceMode : Check if it is device mode
 562:../Libraries/STM32_USB_OTG_Driver/src/usb_core.c **** * @param  pdev : Selected device
 563:../Libraries/STM32_USB_OTG_Driver/src/usb_core.c **** * @retval num_in_ep
 564:../Libraries/STM32_USB_OTG_Driver/src/usb_core.c **** */
 565:../Libraries/STM32_USB_OTG_Driver/src/usb_core.c **** uint8_t USB_OTG_IsDeviceMode(USB_OTG_CORE_HANDLE *pdev)
 566:../Libraries/STM32_USB_OTG_Driver/src/usb_core.c **** {
 1220              		.loc 1 566 0
 1221              		.cfi_startproc
 1222              		@ args = 0, pretend = 0, frame = 8
 1223              		@ frame_needed = 1, uses_anonymous_args = 0
 1224 06c0 80B5     		push	{r7, lr}
 1225              	.LCFI36:
 1226              		.cfi_def_cfa_offset 8
 1227              		.cfi_offset 7, -8
 1228              		.cfi_offset 14, -4
 1229 06c2 82B0     		sub	sp, sp, #8
 1230              	.LCFI37:
 1231              		.cfi_def_cfa_offset 16
 1232 06c4 00AF     		add	r7, sp, #0
 1233              	.LCFI38:
 1234              		.cfi_def_cfa_register 7
 1235 06c6 7860     		str	r0, [r7, #4]
 567:../Libraries/STM32_USB_OTG_Driver/src/usb_core.c ****   return (USB_OTG_GetMode(pdev) != HOST_MODE);
 1236              		.loc 1 567 0
 1237 06c8 7868     		ldr	r0, [r7, #4]
 1238 06ca FFF7FEFF 		bl	USB_OTG_GetMode
 1239 06ce 0346     		mov	r3, r0
 1240 06d0 012B     		cmp	r3, #1
 1241 06d2 0CBF     		ite	eq
 1242 06d4 0023     		moveq	r3, #0
 1243 06d6 0123     		movne	r3, #1
 1244 06d8 DBB2     		uxtb	r3, r3
 568:../Libraries/STM32_USB_OTG_Driver/src/usb_core.c **** }
 1245              		.loc 1 568 0
 1246 06da 1846     		mov	r0, r3
 1247 06dc 07F10807 		add	r7, r7, #8
 1248 06e0 BD46     		mov	sp, r7
 1249 06e2 80BD     		pop	{r7, pc}
 1250              		.cfi_endproc
 1251              	.LFE122:
 1253              		.align	2
 1254              		.global	USB_OTG_IsHostMode
 1255              		.thumb
 1256              		.thumb_func
 1258              	USB_OTG_IsHostMode:
 1259              	.LFB123:
 569:../Libraries/STM32_USB_OTG_Driver/src/usb_core.c **** 
 570:../Libraries/STM32_USB_OTG_Driver/src/usb_core.c **** 
 571:../Libraries/STM32_USB_OTG_Driver/src/usb_core.c **** /**
 572:../Libraries/STM32_USB_OTG_Driver/src/usb_core.c **** * @brief  USB_OTG_IsHostMode : Check if it is host mode
 573:../Libraries/STM32_USB_OTG_Driver/src/usb_core.c **** * @param  pdev : Selected device
 574:../Libraries/STM32_USB_OTG_Driver/src/usb_core.c **** * @retval num_in_ep
 575:../Libraries/STM32_USB_OTG_Driver/src/usb_core.c **** */
 576:../Libraries/STM32_USB_OTG_Driver/src/usb_core.c **** uint8_t USB_OTG_IsHostMode(USB_OTG_CORE_HANDLE *pdev)
 577:../Libraries/STM32_USB_OTG_Driver/src/usb_core.c **** {
 1260              		.loc 1 577 0
 1261              		.cfi_startproc
 1262              		@ args = 0, pretend = 0, frame = 8
 1263              		@ frame_needed = 1, uses_anonymous_args = 0
 1264 06e4 80B5     		push	{r7, lr}
 1265              	.LCFI39:
 1266              		.cfi_def_cfa_offset 8
 1267              		.cfi_offset 7, -8
 1268              		.cfi_offset 14, -4
 1269 06e6 82B0     		sub	sp, sp, #8
 1270              	.LCFI40:
 1271              		.cfi_def_cfa_offset 16
 1272 06e8 00AF     		add	r7, sp, #0
 1273              	.LCFI41:
 1274              		.cfi_def_cfa_register 7
 1275 06ea 7860     		str	r0, [r7, #4]
 578:../Libraries/STM32_USB_OTG_Driver/src/usb_core.c ****   return (USB_OTG_GetMode(pdev) == HOST_MODE);
 1276              		.loc 1 578 0
 1277 06ec 7868     		ldr	r0, [r7, #4]
 1278 06ee FFF7FEFF 		bl	USB_OTG_GetMode
 1279 06f2 0346     		mov	r3, r0
 1280 06f4 012B     		cmp	r3, #1
 1281 06f6 14BF     		ite	ne
 1282 06f8 0023     		movne	r3, #0
 1283 06fa 0123     		moveq	r3, #1
 1284 06fc DBB2     		uxtb	r3, r3
 579:../Libraries/STM32_USB_OTG_Driver/src/usb_core.c **** }
 1285              		.loc 1 579 0
 1286 06fe 1846     		mov	r0, r3
 1287 0700 07F10807 		add	r7, r7, #8
 1288 0704 BD46     		mov	sp, r7
 1289 0706 80BD     		pop	{r7, pc}
 1290              		.cfi_endproc
 1291              	.LFE123:
 1293              		.align	2
 1294              		.global	USB_OTG_ReadCoreItr
 1295              		.thumb
 1296              		.thumb_func
 1298              	USB_OTG_ReadCoreItr:
 1299              	.LFB124:
 580:../Libraries/STM32_USB_OTG_Driver/src/usb_core.c **** 
 581:../Libraries/STM32_USB_OTG_Driver/src/usb_core.c **** 
 582:../Libraries/STM32_USB_OTG_Driver/src/usb_core.c **** /**
 583:../Libraries/STM32_USB_OTG_Driver/src/usb_core.c **** * @brief  USB_OTG_ReadCoreItr : returns the Core Interrupt register
 584:../Libraries/STM32_USB_OTG_Driver/src/usb_core.c **** * @param  pdev : Selected device
 585:../Libraries/STM32_USB_OTG_Driver/src/usb_core.c **** * @retval Status
 586:../Libraries/STM32_USB_OTG_Driver/src/usb_core.c **** */
 587:../Libraries/STM32_USB_OTG_Driver/src/usb_core.c **** uint32_t USB_OTG_ReadCoreItr(USB_OTG_CORE_HANDLE *pdev)
 588:../Libraries/STM32_USB_OTG_Driver/src/usb_core.c **** {
 1300              		.loc 1 588 0
 1301              		.cfi_startproc
 1302              		@ args = 0, pretend = 0, frame = 16
 1303              		@ frame_needed = 1, uses_anonymous_args = 0
 1304              		@ link register save eliminated.
 1305 0708 80B4     		push	{r7}
 1306              	.LCFI42:
 1307              		.cfi_def_cfa_offset 4
 1308              		.cfi_offset 7, -4
 1309 070a 85B0     		sub	sp, sp, #20
 1310              	.LCFI43:
 1311              		.cfi_def_cfa_offset 24
 1312 070c 00AF     		add	r7, sp, #0
 1313              	.LCFI44:
 1314              		.cfi_def_cfa_register 7
 1315 070e 7860     		str	r0, [r7, #4]
 589:../Libraries/STM32_USB_OTG_Driver/src/usb_core.c ****   uint32_t v = 0;
 1316              		.loc 1 589 0
 1317 0710 4FF00003 		mov	r3, #0
 1318 0714 FB60     		str	r3, [r7, #12]
 590:../Libraries/STM32_USB_OTG_Driver/src/usb_core.c ****   v = USB_OTG_READ_REG32(&pdev->regs.GREGS->GINTSTS);
 1319              		.loc 1 590 0
 1320 0716 7B68     		ldr	r3, [r7, #4]
 1321 0718 DB68     		ldr	r3, [r3, #12]
 1322 071a 5B69     		ldr	r3, [r3, #20]
 1323 071c FB60     		str	r3, [r7, #12]
 591:../Libraries/STM32_USB_OTG_Driver/src/usb_core.c ****   v &= USB_OTG_READ_REG32(&pdev->regs.GREGS->GINTMSK);
 1324              		.loc 1 591 0
 1325 071e 7B68     		ldr	r3, [r7, #4]
 1326 0720 DB68     		ldr	r3, [r3, #12]
 1327 0722 9B69     		ldr	r3, [r3, #24]
 1328 0724 FA68     		ldr	r2, [r7, #12]
 1329 0726 1340     		ands	r3, r3, r2
 1330 0728 FB60     		str	r3, [r7, #12]
 592:../Libraries/STM32_USB_OTG_Driver/src/usb_core.c ****   return v;
 1331              		.loc 1 592 0
 1332 072a FB68     		ldr	r3, [r7, #12]
 593:../Libraries/STM32_USB_OTG_Driver/src/usb_core.c **** }
 1333              		.loc 1 593 0
 1334 072c 1846     		mov	r0, r3
 1335 072e 07F11407 		add	r7, r7, #20
 1336 0732 BD46     		mov	sp, r7
 1337 0734 80BC     		pop	{r7}
 1338 0736 7047     		bx	lr
 1339              		.cfi_endproc
 1340              	.LFE124:
 1342              		.align	2
 1343              		.global	USB_OTG_ReadOtgItr
 1344              		.thumb
 1345              		.thumb_func
 1347              	USB_OTG_ReadOtgItr:
 1348              	.LFB125:
 594:../Libraries/STM32_USB_OTG_Driver/src/usb_core.c **** 
 595:../Libraries/STM32_USB_OTG_Driver/src/usb_core.c **** 
 596:../Libraries/STM32_USB_OTG_Driver/src/usb_core.c **** /**
 597:../Libraries/STM32_USB_OTG_Driver/src/usb_core.c **** * @brief  USB_OTG_ReadOtgItr : returns the USB_OTG Interrupt register
 598:../Libraries/STM32_USB_OTG_Driver/src/usb_core.c **** * @param  pdev : Selected device
 599:../Libraries/STM32_USB_OTG_Driver/src/usb_core.c **** * @retval Status
 600:../Libraries/STM32_USB_OTG_Driver/src/usb_core.c **** */
 601:../Libraries/STM32_USB_OTG_Driver/src/usb_core.c **** uint32_t USB_OTG_ReadOtgItr (USB_OTG_CORE_HANDLE *pdev)
 602:../Libraries/STM32_USB_OTG_Driver/src/usb_core.c **** {
 1349              		.loc 1 602 0
 1350              		.cfi_startproc
 1351              		@ args = 0, pretend = 0, frame = 8
 1352              		@ frame_needed = 1, uses_anonymous_args = 0
 1353              		@ link register save eliminated.
 1354 0738 80B4     		push	{r7}
 1355              	.LCFI45:
 1356              		.cfi_def_cfa_offset 4
 1357              		.cfi_offset 7, -4
 1358 073a 83B0     		sub	sp, sp, #12
 1359              	.LCFI46:
 1360              		.cfi_def_cfa_offset 16
 1361 073c 00AF     		add	r7, sp, #0
 1362              	.LCFI47:
 1363              		.cfi_def_cfa_register 7
 1364 073e 7860     		str	r0, [r7, #4]
 603:../Libraries/STM32_USB_OTG_Driver/src/usb_core.c ****   return (USB_OTG_READ_REG32 (&pdev->regs.GREGS->GOTGINT));
 1365              		.loc 1 603 0
 1366 0740 7B68     		ldr	r3, [r7, #4]
 1367 0742 DB68     		ldr	r3, [r3, #12]
 1368 0744 5B68     		ldr	r3, [r3, #4]
 604:../Libraries/STM32_USB_OTG_Driver/src/usb_core.c **** }
 1369              		.loc 1 604 0
 1370 0746 1846     		mov	r0, r3
 1371 0748 07F10C07 		add	r7, r7, #12
 1372 074c BD46     		mov	sp, r7
 1373 074e 80BC     		pop	{r7}
 1374 0750 7047     		bx	lr
 1375              		.cfi_endproc
 1376              	.LFE125:
 1378 0752 00BF     		.align	2
 1379              		.global	USB_OTG_CoreInitHost
 1380              		.thumb
 1381              		.thumb_func
 1383              	USB_OTG_CoreInitHost:
 1384              	.LFB126:
 605:../Libraries/STM32_USB_OTG_Driver/src/usb_core.c **** 
 606:../Libraries/STM32_USB_OTG_Driver/src/usb_core.c **** #ifdef USE_HOST_MODE
 607:../Libraries/STM32_USB_OTG_Driver/src/usb_core.c **** /**
 608:../Libraries/STM32_USB_OTG_Driver/src/usb_core.c **** * @brief  USB_OTG_CoreInitHost : Initializes USB_OTG controller for host mode
 609:../Libraries/STM32_USB_OTG_Driver/src/usb_core.c **** * @param  pdev : Selected device
 610:../Libraries/STM32_USB_OTG_Driver/src/usb_core.c **** * @retval status
 611:../Libraries/STM32_USB_OTG_Driver/src/usb_core.c **** */
 612:../Libraries/STM32_USB_OTG_Driver/src/usb_core.c **** USB_OTG_STS USB_OTG_CoreInitHost(USB_OTG_CORE_HANDLE *pdev)
 613:../Libraries/STM32_USB_OTG_Driver/src/usb_core.c **** {
 1385              		.loc 1 613 0
 1386              		.cfi_startproc
 1387              		@ args = 0, pretend = 0, frame = 32
 1388              		@ frame_needed = 1, uses_anonymous_args = 0
 1389 0754 80B5     		push	{r7, lr}
 1390              	.LCFI48:
 1391              		.cfi_def_cfa_offset 8
 1392              		.cfi_offset 7, -8
 1393              		.cfi_offset 14, -4
 1394 0756 88B0     		sub	sp, sp, #32
 1395              	.LCFI49:
 1396              		.cfi_def_cfa_offset 40
 1397 0758 00AF     		add	r7, sp, #0
 1398              	.LCFI50:
 1399              		.cfi_def_cfa_register 7
 1400 075a 7860     		str	r0, [r7, #4]
 614:../Libraries/STM32_USB_OTG_Driver/src/usb_core.c ****   USB_OTG_STS                     status = USB_OTG_OK;
 1401              		.loc 1 614 0
 1402 075c 4FF00003 		mov	r3, #0
 1403 0760 FB76     		strb	r3, [r7, #27]
 615:../Libraries/STM32_USB_OTG_Driver/src/usb_core.c ****   USB_OTG_FSIZ_TypeDef            nptxfifosize;
 616:../Libraries/STM32_USB_OTG_Driver/src/usb_core.c ****   USB_OTG_FSIZ_TypeDef            ptxfifosize;  
 617:../Libraries/STM32_USB_OTG_Driver/src/usb_core.c ****   USB_OTG_HCFG_TypeDef            hcfg;
 618:../Libraries/STM32_USB_OTG_Driver/src/usb_core.c ****   
 619:../Libraries/STM32_USB_OTG_Driver/src/usb_core.c **** #ifdef USE_OTG_MODE
 620:../Libraries/STM32_USB_OTG_Driver/src/usb_core.c ****   USB_OTG_OTGCTL_TypeDef          gotgctl;
 621:../Libraries/STM32_USB_OTG_Driver/src/usb_core.c **** #endif
 622:../Libraries/STM32_USB_OTG_Driver/src/usb_core.c ****   
 623:../Libraries/STM32_USB_OTG_Driver/src/usb_core.c ****   uint32_t                        i = 0;
 1404              		.loc 1 623 0
 1405 0762 4FF00003 		mov	r3, #0
 1406 0766 FB61     		str	r3, [r7, #28]
 624:../Libraries/STM32_USB_OTG_Driver/src/usb_core.c ****   
 625:../Libraries/STM32_USB_OTG_Driver/src/usb_core.c ****   nptxfifosize.d32 = 0;  
 1407              		.loc 1 625 0
 1408 0768 4FF00003 		mov	r3, #0
 1409 076c 7B61     		str	r3, [r7, #20]
 626:../Libraries/STM32_USB_OTG_Driver/src/usb_core.c ****   ptxfifosize.d32 = 0;
 1410              		.loc 1 626 0
 1411 076e 4FF00003 		mov	r3, #0
 1412 0772 3B61     		str	r3, [r7, #16]
 627:../Libraries/STM32_USB_OTG_Driver/src/usb_core.c **** #ifdef USE_OTG_MODE
 628:../Libraries/STM32_USB_OTG_Driver/src/usb_core.c ****   gotgctl.d32 = 0;
 629:../Libraries/STM32_USB_OTG_Driver/src/usb_core.c **** #endif
 630:../Libraries/STM32_USB_OTG_Driver/src/usb_core.c ****   hcfg.d32 = 0;
 1413              		.loc 1 630 0
 1414 0774 4FF00003 		mov	r3, #0
 1415 0778 FB60     		str	r3, [r7, #12]
 631:../Libraries/STM32_USB_OTG_Driver/src/usb_core.c ****   
 632:../Libraries/STM32_USB_OTG_Driver/src/usb_core.c ****   
 633:../Libraries/STM32_USB_OTG_Driver/src/usb_core.c ****   /* configure charge pump IO */
 634:../Libraries/STM32_USB_OTG_Driver/src/usb_core.c ****   USB_OTG_BSP_ConfigVBUS(pdev);
 1416              		.loc 1 634 0
 1417 077a 7868     		ldr	r0, [r7, #4]
 1418 077c FFF7FEFF 		bl	USB_OTG_BSP_ConfigVBUS
 635:../Libraries/STM32_USB_OTG_Driver/src/usb_core.c ****   
 636:../Libraries/STM32_USB_OTG_Driver/src/usb_core.c ****   /* Restart the Phy Clock */
 637:../Libraries/STM32_USB_OTG_Driver/src/usb_core.c ****   USB_OTG_WRITE_REG32(pdev->regs.PCGCCTL, 0);
 1419              		.loc 1 637 0
 1420 0780 7B68     		ldr	r3, [r7, #4]
 1421 0782 D3F80C31 		ldr	r3, [r3, #268]
 1422 0786 4FF00002 		mov	r2, #0
 1423 078a 1A60     		str	r2, [r3, #0]
 638:../Libraries/STM32_USB_OTG_Driver/src/usb_core.c ****   
 639:../Libraries/STM32_USB_OTG_Driver/src/usb_core.c ****   /* Initialize Host Configuration Register */
 640:../Libraries/STM32_USB_OTG_Driver/src/usb_core.c ****   if (pdev->cfg.phy_itface == USB_OTG_ULPI_PHY)
 1424              		.loc 1 640 0
 1425 078c 7B68     		ldr	r3, [r7, #4]
 1426 078e 1B7A     		ldrb	r3, [r3, #8]	@ zero_extendqisi2
 1427 0790 012B     		cmp	r3, #1
 1428 0792 05D1     		bne	.L77
 641:../Libraries/STM32_USB_OTG_Driver/src/usb_core.c ****   {
 642:../Libraries/STM32_USB_OTG_Driver/src/usb_core.c ****     USB_OTG_InitFSLSPClkSel(pdev , HCFG_30_60_MHZ); 
 1429              		.loc 1 642 0
 1430 0794 7868     		ldr	r0, [r7, #4]
 1431 0796 4FF00001 		mov	r1, #0
 1432 079a FFF7FEFF 		bl	USB_OTG_InitFSLSPClkSel
 1433 079e 04E0     		b	.L78
 1434              	.L77:
 643:../Libraries/STM32_USB_OTG_Driver/src/usb_core.c ****   }
 644:../Libraries/STM32_USB_OTG_Driver/src/usb_core.c ****   else
 645:../Libraries/STM32_USB_OTG_Driver/src/usb_core.c ****   {
 646:../Libraries/STM32_USB_OTG_Driver/src/usb_core.c ****     USB_OTG_InitFSLSPClkSel(pdev , HCFG_48_MHZ); 
 1435              		.loc 1 646 0
 1436 07a0 7868     		ldr	r0, [r7, #4]
 1437 07a2 4FF00101 		mov	r1, #1
 1438 07a6 FFF7FEFF 		bl	USB_OTG_InitFSLSPClkSel
 1439              	.L78:
 647:../Libraries/STM32_USB_OTG_Driver/src/usb_core.c ****   }
 648:../Libraries/STM32_USB_OTG_Driver/src/usb_core.c ****   USB_OTG_ResetPort(pdev);
 1440              		.loc 1 648 0
 1441 07aa 7868     		ldr	r0, [r7, #4]
 1442 07ac FFF7FEFF 		bl	USB_OTG_ResetPort
 649:../Libraries/STM32_USB_OTG_Driver/src/usb_core.c ****   
 650:../Libraries/STM32_USB_OTG_Driver/src/usb_core.c ****   hcfg.d32 = USB_OTG_READ_REG32(&pdev->regs.HREGS->HCFG);
 1443              		.loc 1 650 0
 1444 07b0 7B68     		ldr	r3, [r7, #4]
 1445 07b2 5B69     		ldr	r3, [r3, #20]
 1446 07b4 1B68     		ldr	r3, [r3, #0]
 1447 07b6 FB60     		str	r3, [r7, #12]
 651:../Libraries/STM32_USB_OTG_Driver/src/usb_core.c ****   hcfg.b.fslssupp = 0;
 1448              		.loc 1 651 0
 1449 07b8 3B7B     		ldrb	r3, [r7, #12]
 1450 07ba 6FF38203 		bfc	r3, #2, #1
 1451 07be 3B73     		strb	r3, [r7, #12]
 652:../Libraries/STM32_USB_OTG_Driver/src/usb_core.c ****   USB_OTG_WRITE_REG32(&pdev->regs.HREGS->HCFG, hcfg.d32);
 1452              		.loc 1 652 0
 1453 07c0 7B68     		ldr	r3, [r7, #4]
 1454 07c2 5B69     		ldr	r3, [r3, #20]
 1455 07c4 FA68     		ldr	r2, [r7, #12]
 1456 07c6 1A60     		str	r2, [r3, #0]
 653:../Libraries/STM32_USB_OTG_Driver/src/usb_core.c ****   
 654:../Libraries/STM32_USB_OTG_Driver/src/usb_core.c ****   /* Configure data FIFO sizes */
 655:../Libraries/STM32_USB_OTG_Driver/src/usb_core.c ****   /* Rx FIFO */
 656:../Libraries/STM32_USB_OTG_Driver/src/usb_core.c **** #ifdef USB_OTG_FS_CORE
 657:../Libraries/STM32_USB_OTG_Driver/src/usb_core.c ****   if(pdev->cfg.coreID == USB_OTG_FS_CORE_ID)
 1457              		.loc 1 657 0
 1458 07c8 7B68     		ldr	r3, [r7, #4]
 1459 07ca DB7A     		ldrb	r3, [r3, #11]	@ zero_extendqisi2
 1460 07cc 012B     		cmp	r3, #1
 1461 07ce 25D1     		bne	.L79
 658:../Libraries/STM32_USB_OTG_Driver/src/usb_core.c ****   {
 659:../Libraries/STM32_USB_OTG_Driver/src/usb_core.c ****     /* set Rx FIFO size */
 660:../Libraries/STM32_USB_OTG_Driver/src/usb_core.c ****     USB_OTG_WRITE_REG32(&pdev->regs.GREGS->GRXFSIZ, RX_FIFO_FS_SIZE);
 1462              		.loc 1 660 0
 1463 07d0 7B68     		ldr	r3, [r7, #4]
 1464 07d2 DB68     		ldr	r3, [r3, #12]
 1465 07d4 4FF08002 		mov	r2, #128
 1466 07d8 5A62     		str	r2, [r3, #36]
 661:../Libraries/STM32_USB_OTG_Driver/src/usb_core.c ****     nptxfifosize.b.startaddr = RX_FIFO_FS_SIZE;   
 1467              		.loc 1 661 0
 1468 07da 7B69     		ldr	r3, [r7, #20]
 1469 07dc 4FF08002 		mov	r2, #128
 1470 07e0 62F30F03 		bfi	r3, r2, #0, #16
 1471 07e4 7B61     		str	r3, [r7, #20]
 662:../Libraries/STM32_USB_OTG_Driver/src/usb_core.c ****     nptxfifosize.b.depth = TXH_NP_FS_FIFOSIZ;  
 1472              		.loc 1 662 0
 1473 07e6 7B69     		ldr	r3, [r7, #20]
 1474 07e8 4FF06002 		mov	r2, #96
 1475 07ec 62F31F43 		bfi	r3, r2, #16, #16
 1476 07f0 7B61     		str	r3, [r7, #20]
 663:../Libraries/STM32_USB_OTG_Driver/src/usb_core.c ****     USB_OTG_WRITE_REG32(&pdev->regs.GREGS->DIEPTXF0_HNPTXFSIZ, nptxfifosize.d32);
 1477              		.loc 1 663 0
 1478 07f2 7B68     		ldr	r3, [r7, #4]
 1479 07f4 DB68     		ldr	r3, [r3, #12]
 1480 07f6 7A69     		ldr	r2, [r7, #20]
 1481 07f8 9A62     		str	r2, [r3, #40]
 664:../Libraries/STM32_USB_OTG_Driver/src/usb_core.c ****     
 665:../Libraries/STM32_USB_OTG_Driver/src/usb_core.c ****     ptxfifosize.b.startaddr = RX_FIFO_FS_SIZE + TXH_NP_FS_FIFOSIZ;
 1482              		.loc 1 665 0
 1483 07fa 3B69     		ldr	r3, [r7, #16]
 1484 07fc 4FF0E002 		mov	r2, #224
 1485 0800 62F30F03 		bfi	r3, r2, #0, #16
 1486 0804 3B61     		str	r3, [r7, #16]
 666:../Libraries/STM32_USB_OTG_Driver/src/usb_core.c ****     ptxfifosize.b.depth     = TXH_P_FS_FIFOSIZ;
 1487              		.loc 1 666 0
 1488 0806 3B69     		ldr	r3, [r7, #16]
 1489 0808 4FF06002 		mov	r2, #96
 1490 080c 62F31F43 		bfi	r3, r2, #16, #16
 1491 0810 3B61     		str	r3, [r7, #16]
 667:../Libraries/STM32_USB_OTG_Driver/src/usb_core.c ****     USB_OTG_WRITE_REG32(&pdev->regs.GREGS->HPTXFSIZ, ptxfifosize.d32);      
 1492              		.loc 1 667 0
 1493 0812 7B68     		ldr	r3, [r7, #4]
 1494 0814 DB68     		ldr	r3, [r3, #12]
 1495 0816 3A69     		ldr	r2, [r7, #16]
 1496 0818 C3F80021 		str	r2, [r3, #256]
 1497              	.L79:
 668:../Libraries/STM32_USB_OTG_Driver/src/usb_core.c ****   }
 669:../Libraries/STM32_USB_OTG_Driver/src/usb_core.c **** #endif
 670:../Libraries/STM32_USB_OTG_Driver/src/usb_core.c **** #ifdef USB_OTG_HS_CORE  
 671:../Libraries/STM32_USB_OTG_Driver/src/usb_core.c ****   if (pdev->cfg.coreID == USB_OTG_HS_CORE_ID)
 672:../Libraries/STM32_USB_OTG_Driver/src/usb_core.c ****   {
 673:../Libraries/STM32_USB_OTG_Driver/src/usb_core.c ****     /* set Rx FIFO size */
 674:../Libraries/STM32_USB_OTG_Driver/src/usb_core.c ****     USB_OTG_WRITE_REG32(&pdev->regs.GREGS->GRXFSIZ, RX_FIFO_HS_SIZE);
 675:../Libraries/STM32_USB_OTG_Driver/src/usb_core.c ****     nptxfifosize.b.startaddr = RX_FIFO_HS_SIZE;   
 676:../Libraries/STM32_USB_OTG_Driver/src/usb_core.c ****     nptxfifosize.b.depth = TXH_NP_HS_FIFOSIZ;  
 677:../Libraries/STM32_USB_OTG_Driver/src/usb_core.c ****     USB_OTG_WRITE_REG32(&pdev->regs.GREGS->DIEPTXF0_HNPTXFSIZ, nptxfifosize.d32);
 678:../Libraries/STM32_USB_OTG_Driver/src/usb_core.c ****     
 679:../Libraries/STM32_USB_OTG_Driver/src/usb_core.c ****     ptxfifosize.b.startaddr = RX_FIFO_HS_SIZE + TXH_NP_HS_FIFOSIZ;
 680:../Libraries/STM32_USB_OTG_Driver/src/usb_core.c ****     ptxfifosize.b.depth     = TXH_P_HS_FIFOSIZ;
 681:../Libraries/STM32_USB_OTG_Driver/src/usb_core.c ****     USB_OTG_WRITE_REG32(&pdev->regs.GREGS->HPTXFSIZ, ptxfifosize.d32);      
 682:../Libraries/STM32_USB_OTG_Driver/src/usb_core.c ****   }
 683:../Libraries/STM32_USB_OTG_Driver/src/usb_core.c **** #endif  
 684:../Libraries/STM32_USB_OTG_Driver/src/usb_core.c ****   
 685:../Libraries/STM32_USB_OTG_Driver/src/usb_core.c **** #ifdef USE_OTG_MODE
 686:../Libraries/STM32_USB_OTG_Driver/src/usb_core.c ****   /* Clear Host Set HNP Enable in the USB_OTG Control Register */
 687:../Libraries/STM32_USB_OTG_Driver/src/usb_core.c ****   gotgctl.b.hstsethnpen = 1;
 688:../Libraries/STM32_USB_OTG_Driver/src/usb_core.c ****   USB_OTG_MODIFY_REG32( &pdev->regs.GREGS->GOTGCTL, gotgctl.d32, 0);
 689:../Libraries/STM32_USB_OTG_Driver/src/usb_core.c **** #endif
 690:../Libraries/STM32_USB_OTG_Driver/src/usb_core.c ****   
 691:../Libraries/STM32_USB_OTG_Driver/src/usb_core.c ****   /* Make sure the FIFOs are flushed. */
 692:../Libraries/STM32_USB_OTG_Driver/src/usb_core.c ****   USB_OTG_FlushTxFifo(pdev, 0x10 );         /* all Tx FIFOs */
 1498              		.loc 1 692 0
 1499 081c 7868     		ldr	r0, [r7, #4]
 1500 081e 4FF01001 		mov	r1, #16
 1501 0822 FFF7FEFF 		bl	USB_OTG_FlushTxFifo
 693:../Libraries/STM32_USB_OTG_Driver/src/usb_core.c ****   USB_OTG_FlushRxFifo(pdev);
 1502              		.loc 1 693 0
 1503 0826 7868     		ldr	r0, [r7, #4]
 1504 0828 FFF7FEFF 		bl	USB_OTG_FlushRxFifo
 694:../Libraries/STM32_USB_OTG_Driver/src/usb_core.c ****   
 695:../Libraries/STM32_USB_OTG_Driver/src/usb_core.c ****   
 696:../Libraries/STM32_USB_OTG_Driver/src/usb_core.c ****   /* Clear all pending HC Interrupts */
 697:../Libraries/STM32_USB_OTG_Driver/src/usb_core.c ****   for (i = 0; i < pdev->cfg.host_channels; i++)
 1505              		.loc 1 697 0
 1506 082c 4FF00003 		mov	r3, #0
 1507 0830 FB61     		str	r3, [r7, #28]
 1508 0832 19E0     		b	.L80
 1509              	.L81:
 698:../Libraries/STM32_USB_OTG_Driver/src/usb_core.c ****   {
 699:../Libraries/STM32_USB_OTG_Driver/src/usb_core.c ****     USB_OTG_WRITE_REG32( &pdev->regs.HC_REGS[i]->HCINT, 0xFFFFFFFF );
 1510              		.loc 1 699 0 discriminator 2
 1511 0834 7A68     		ldr	r2, [r7, #4]
 1512 0836 FB69     		ldr	r3, [r7, #28]
 1513 0838 03F12203 		add	r3, r3, #34
 1514 083c 4FEA8303 		lsl	r3, r3, #2
 1515 0840 D318     		adds	r3, r2, r3
 1516 0842 9B68     		ldr	r3, [r3, #8]
 1517 0844 4FF0FF32 		mov	r2, #-1
 1518 0848 9A60     		str	r2, [r3, #8]
 700:../Libraries/STM32_USB_OTG_Driver/src/usb_core.c ****     USB_OTG_WRITE_REG32( &pdev->regs.HC_REGS[i]->HCINTMSK, 0 );
 1519              		.loc 1 700 0 discriminator 2
 1520 084a 7A68     		ldr	r2, [r7, #4]
 1521 084c FB69     		ldr	r3, [r7, #28]
 1522 084e 03F12203 		add	r3, r3, #34
 1523 0852 4FEA8303 		lsl	r3, r3, #2
 1524 0856 D318     		adds	r3, r2, r3
 1525 0858 9B68     		ldr	r3, [r3, #8]
 1526 085a 4FF00002 		mov	r2, #0
 1527 085e DA60     		str	r2, [r3, #12]
 697:../Libraries/STM32_USB_OTG_Driver/src/usb_core.c ****   for (i = 0; i < pdev->cfg.host_channels; i++)
 1528              		.loc 1 697 0 discriminator 2
 1529 0860 FB69     		ldr	r3, [r7, #28]
 1530 0862 03F10103 		add	r3, r3, #1
 1531 0866 FB61     		str	r3, [r7, #28]
 1532              	.L80:
 697:../Libraries/STM32_USB_OTG_Driver/src/usb_core.c ****   for (i = 0; i < pdev->cfg.host_channels; i++)
 1533              		.loc 1 697 0 is_stmt 0 discriminator 1
 1534 0868 7B68     		ldr	r3, [r7, #4]
 1535 086a 1B78     		ldrb	r3, [r3, #0]	@ zero_extendqisi2
 1536 086c 1A46     		mov	r2, r3
 1537 086e FB69     		ldr	r3, [r7, #28]
 1538 0870 9A42     		cmp	r2, r3
 1539 0872 DFD8     		bhi	.L81
 701:../Libraries/STM32_USB_OTG_Driver/src/usb_core.c ****   }
 702:../Libraries/STM32_USB_OTG_Driver/src/usb_core.c **** #ifndef USE_OTG_MODE
 703:../Libraries/STM32_USB_OTG_Driver/src/usb_core.c ****   USB_OTG_DriveVbus(pdev, 1);
 1540              		.loc 1 703 0 is_stmt 1
 1541 0874 7868     		ldr	r0, [r7, #4]
 1542 0876 4FF00101 		mov	r1, #1
 1543 087a FFF7FEFF 		bl	USB_OTG_DriveVbus
 704:../Libraries/STM32_USB_OTG_Driver/src/usb_core.c **** #endif
 705:../Libraries/STM32_USB_OTG_Driver/src/usb_core.c ****   
 706:../Libraries/STM32_USB_OTG_Driver/src/usb_core.c ****   USB_OTG_EnableHostInt(pdev);
 1544              		.loc 1 706 0
 1545 087e 7868     		ldr	r0, [r7, #4]
 1546 0880 FFF7FEFF 		bl	USB_OTG_EnableHostInt
 707:../Libraries/STM32_USB_OTG_Driver/src/usb_core.c ****   return status;
 1547              		.loc 1 707 0
 1548 0884 FB7E     		ldrb	r3, [r7, #27]	@ zero_extendqisi2
 708:../Libraries/STM32_USB_OTG_Driver/src/usb_core.c **** }
 1549              		.loc 1 708 0
 1550 0886 1846     		mov	r0, r3
 1551 0888 07F12007 		add	r7, r7, #32
 1552 088c BD46     		mov	sp, r7
 1553 088e 80BD     		pop	{r7, pc}
 1554              		.cfi_endproc
 1555              	.LFE126:
 1557              		.align	2
 1558              		.global	USB_OTG_IsEvenFrame
 1559              		.thumb
 1560              		.thumb_func
 1562              	USB_OTG_IsEvenFrame:
 1563              	.LFB127:
 709:../Libraries/STM32_USB_OTG_Driver/src/usb_core.c **** 
 710:../Libraries/STM32_USB_OTG_Driver/src/usb_core.c **** /**
 711:../Libraries/STM32_USB_OTG_Driver/src/usb_core.c **** * @brief  USB_OTG_IsEvenFrame 
 712:../Libraries/STM32_USB_OTG_Driver/src/usb_core.c **** *         This function returns the frame number for sof packet
 713:../Libraries/STM32_USB_OTG_Driver/src/usb_core.c **** * @param  pdev : Selected device
 714:../Libraries/STM32_USB_OTG_Driver/src/usb_core.c **** * @retval Frame number
 715:../Libraries/STM32_USB_OTG_Driver/src/usb_core.c **** */
 716:../Libraries/STM32_USB_OTG_Driver/src/usb_core.c **** uint8_t USB_OTG_IsEvenFrame (USB_OTG_CORE_HANDLE *pdev) 
 717:../Libraries/STM32_USB_OTG_Driver/src/usb_core.c **** {
 1564              		.loc 1 717 0
 1565              		.cfi_startproc
 1566              		@ args = 0, pretend = 0, frame = 8
 1567              		@ frame_needed = 1, uses_anonymous_args = 0
 1568              		@ link register save eliminated.
 1569 0890 80B4     		push	{r7}
 1570              	.LCFI51:
 1571              		.cfi_def_cfa_offset 4
 1572              		.cfi_offset 7, -4
 1573 0892 83B0     		sub	sp, sp, #12
 1574              	.LCFI52:
 1575              		.cfi_def_cfa_offset 16
 1576 0894 00AF     		add	r7, sp, #0
 1577              	.LCFI53:
 1578              		.cfi_def_cfa_register 7
 1579 0896 7860     		str	r0, [r7, #4]
 718:../Libraries/STM32_USB_OTG_Driver/src/usb_core.c ****   return !(USB_OTG_READ_REG32(&pdev->regs.HREGS->HFNUM) & 0x1);
 1580              		.loc 1 718 0
 1581 0898 7B68     		ldr	r3, [r7, #4]
 1582 089a 5B69     		ldr	r3, [r3, #20]
 1583 089c 9B68     		ldr	r3, [r3, #8]
 1584 089e 03F00103 		and	r3, r3, #1
 1585 08a2 002B     		cmp	r3, #0
 1586 08a4 14BF     		ite	ne
 1587 08a6 0023     		movne	r3, #0
 1588 08a8 0123     		moveq	r3, #1
 1589 08aa DBB2     		uxtb	r3, r3
 719:../Libraries/STM32_USB_OTG_Driver/src/usb_core.c **** }
 1590              		.loc 1 719 0
 1591 08ac 1846     		mov	r0, r3
 1592 08ae 07F10C07 		add	r7, r7, #12
 1593 08b2 BD46     		mov	sp, r7
 1594 08b4 80BC     		pop	{r7}
 1595 08b6 7047     		bx	lr
 1596              		.cfi_endproc
 1597              	.LFE127:
 1599              		.align	2
 1600              		.global	USB_OTG_DriveVbus
 1601              		.thumb
 1602              		.thumb_func
 1604              	USB_OTG_DriveVbus:
 1605              	.LFB128:
 720:../Libraries/STM32_USB_OTG_Driver/src/usb_core.c **** 
 721:../Libraries/STM32_USB_OTG_Driver/src/usb_core.c **** /**
 722:../Libraries/STM32_USB_OTG_Driver/src/usb_core.c **** * @brief  USB_OTG_DriveVbus : set/reset vbus
 723:../Libraries/STM32_USB_OTG_Driver/src/usb_core.c **** * @param  pdev : Selected device
 724:../Libraries/STM32_USB_OTG_Driver/src/usb_core.c **** * @param  state : VBUS state
 725:../Libraries/STM32_USB_OTG_Driver/src/usb_core.c **** * @retval None
 726:../Libraries/STM32_USB_OTG_Driver/src/usb_core.c **** */
 727:../Libraries/STM32_USB_OTG_Driver/src/usb_core.c **** void USB_OTG_DriveVbus (USB_OTG_CORE_HANDLE *pdev, uint8_t state)
 728:../Libraries/STM32_USB_OTG_Driver/src/usb_core.c **** {
 1606              		.loc 1 728 0
 1607              		.cfi_startproc
 1608              		@ args = 0, pretend = 0, frame = 16
 1609              		@ frame_needed = 1, uses_anonymous_args = 0
 1610 08b8 80B5     		push	{r7, lr}
 1611              	.LCFI54:
 1612              		.cfi_def_cfa_offset 8
 1613              		.cfi_offset 7, -8
 1614              		.cfi_offset 14, -4
 1615 08ba 84B0     		sub	sp, sp, #16
 1616              	.LCFI55:
 1617              		.cfi_def_cfa_offset 24
 1618 08bc 00AF     		add	r7, sp, #0
 1619              	.LCFI56:
 1620              		.cfi_def_cfa_register 7
 1621 08be 7860     		str	r0, [r7, #4]
 1622 08c0 0B46     		mov	r3, r1
 1623 08c2 FB70     		strb	r3, [r7, #3]
 729:../Libraries/STM32_USB_OTG_Driver/src/usb_core.c ****   USB_OTG_HPRT0_TypeDef     hprt0;
 730:../Libraries/STM32_USB_OTG_Driver/src/usb_core.c ****   
 731:../Libraries/STM32_USB_OTG_Driver/src/usb_core.c ****   hprt0.d32 = 0;
 1624              		.loc 1 731 0
 1625 08c4 4FF00003 		mov	r3, #0
 1626 08c8 FB60     		str	r3, [r7, #12]
 732:../Libraries/STM32_USB_OTG_Driver/src/usb_core.c ****   
 733:../Libraries/STM32_USB_OTG_Driver/src/usb_core.c ****   /* enable disable the external charge pump */
 734:../Libraries/STM32_USB_OTG_Driver/src/usb_core.c ****   USB_OTG_BSP_DriveVBUS(pdev, state);
 1627              		.loc 1 734 0
 1628 08ca FB78     		ldrb	r3, [r7, #3]	@ zero_extendqisi2
 1629 08cc 7868     		ldr	r0, [r7, #4]
 1630 08ce 1946     		mov	r1, r3
 1631 08d0 FFF7FEFF 		bl	USB_OTG_BSP_DriveVBUS
 735:../Libraries/STM32_USB_OTG_Driver/src/usb_core.c ****   
 736:../Libraries/STM32_USB_OTG_Driver/src/usb_core.c ****   /* Turn on the Host port power. */
 737:../Libraries/STM32_USB_OTG_Driver/src/usb_core.c ****   hprt0.d32 = USB_OTG_ReadHPRT0(pdev);
 1632              		.loc 1 737 0
 1633 08d4 7868     		ldr	r0, [r7, #4]
 1634 08d6 FFF7FEFF 		bl	USB_OTG_ReadHPRT0
 1635 08da 0346     		mov	r3, r0
 1636 08dc FB60     		str	r3, [r7, #12]
 738:../Libraries/STM32_USB_OTG_Driver/src/usb_core.c ****   if ((hprt0.b.prtpwr == 0 ) && (state == 1 ))
 1637              		.loc 1 738 0
 1638 08de FB68     		ldr	r3, [r7, #12]
 1639 08e0 C3F30033 		ubfx	r3, r3, #12, #1
 1640 08e4 DBB2     		uxtb	r3, r3
 1641 08e6 002B     		cmp	r3, #0
 1642 08e8 0BD1     		bne	.L86
 1643              		.loc 1 738 0 is_stmt 0 discriminator 1
 1644 08ea FB78     		ldrb	r3, [r7, #3]	@ zero_extendqisi2
 1645 08ec 012B     		cmp	r3, #1
 1646 08ee 08D1     		bne	.L86
 739:../Libraries/STM32_USB_OTG_Driver/src/usb_core.c ****   {
 740:../Libraries/STM32_USB_OTG_Driver/src/usb_core.c ****     hprt0.b.prtpwr = 1;
 1647              		.loc 1 740 0 is_stmt 1
 1648 08f0 FB68     		ldr	r3, [r7, #12]
 1649 08f2 43F48053 		orr	r3, r3, #4096
 1650 08f6 FB60     		str	r3, [r7, #12]
 741:../Libraries/STM32_USB_OTG_Driver/src/usb_core.c ****     USB_OTG_WRITE_REG32(pdev->regs.HPRT0, hprt0.d32);
 1651              		.loc 1 741 0
 1652 08f8 7B68     		ldr	r3, [r7, #4]
 1653 08fa D3F8CC30 		ldr	r3, [r3, #204]
 1654 08fe FA68     		ldr	r2, [r7, #12]
 1655 0900 1A60     		str	r2, [r3, #0]
 1656              	.L86:
 742:../Libraries/STM32_USB_OTG_Driver/src/usb_core.c ****   }
 743:../Libraries/STM32_USB_OTG_Driver/src/usb_core.c ****   if ((hprt0.b.prtpwr == 1 ) && (state == 0 ))
 1657              		.loc 1 743 0
 1658 0902 FB68     		ldr	r3, [r7, #12]
 1659 0904 C3F30033 		ubfx	r3, r3, #12, #1
 1660 0908 DBB2     		uxtb	r3, r3
 1661 090a 012B     		cmp	r3, #1
 1662 090c 0BD1     		bne	.L87
 1663              		.loc 1 743 0 is_stmt 0 discriminator 1
 1664 090e FB78     		ldrb	r3, [r7, #3]	@ zero_extendqisi2
 1665 0910 002B     		cmp	r3, #0
 1666 0912 08D1     		bne	.L87
 744:../Libraries/STM32_USB_OTG_Driver/src/usb_core.c ****   {
 745:../Libraries/STM32_USB_OTG_Driver/src/usb_core.c ****     hprt0.b.prtpwr = 0;
 1667              		.loc 1 745 0 is_stmt 1
 1668 0914 FB68     		ldr	r3, [r7, #12]
 1669 0916 6FF30C33 		bfc	r3, #12, #1
 1670 091a FB60     		str	r3, [r7, #12]
 746:../Libraries/STM32_USB_OTG_Driver/src/usb_core.c ****     USB_OTG_WRITE_REG32(pdev->regs.HPRT0, hprt0.d32);
 1671              		.loc 1 746 0
 1672 091c 7B68     		ldr	r3, [r7, #4]
 1673 091e D3F8CC30 		ldr	r3, [r3, #204]
 1674 0922 FA68     		ldr	r2, [r7, #12]
 1675 0924 1A60     		str	r2, [r3, #0]
 1676              	.L87:
 747:../Libraries/STM32_USB_OTG_Driver/src/usb_core.c ****   }
 748:../Libraries/STM32_USB_OTG_Driver/src/usb_core.c ****   
 749:../Libraries/STM32_USB_OTG_Driver/src/usb_core.c ****   USB_OTG_BSP_mDelay(200);
 1677              		.loc 1 749 0
 1678 0926 4FF0C800 		mov	r0, #200
 1679 092a FFF7FEFF 		bl	USB_OTG_BSP_mDelay
 750:../Libraries/STM32_USB_OTG_Driver/src/usb_core.c **** }
 1680              		.loc 1 750 0
 1681 092e 07F11007 		add	r7, r7, #16
 1682 0932 BD46     		mov	sp, r7
 1683 0934 80BD     		pop	{r7, pc}
 1684              		.cfi_endproc
 1685              	.LFE128:
 1687 0936 00BF     		.align	2
 1688              		.global	USB_OTG_EnableHostInt
 1689              		.thumb
 1690              		.thumb_func
 1692              	USB_OTG_EnableHostInt:
 1693              	.LFB129:
 751:../Libraries/STM32_USB_OTG_Driver/src/usb_core.c **** /**
 752:../Libraries/STM32_USB_OTG_Driver/src/usb_core.c **** * @brief  USB_OTG_EnableHostInt: Enables the Host mode interrupts
 753:../Libraries/STM32_USB_OTG_Driver/src/usb_core.c **** * @param  pdev : Selected device
 754:../Libraries/STM32_USB_OTG_Driver/src/usb_core.c **** * @retval USB_OTG_STS : status
 755:../Libraries/STM32_USB_OTG_Driver/src/usb_core.c **** */
 756:../Libraries/STM32_USB_OTG_Driver/src/usb_core.c **** USB_OTG_STS USB_OTG_EnableHostInt(USB_OTG_CORE_HANDLE *pdev)
 757:../Libraries/STM32_USB_OTG_Driver/src/usb_core.c **** {
 1694              		.loc 1 757 0
 1695              		.cfi_startproc
 1696              		@ args = 0, pretend = 0, frame = 16
 1697              		@ frame_needed = 1, uses_anonymous_args = 0
 1698 0938 80B5     		push	{r7, lr}
 1699              	.LCFI57:
 1700              		.cfi_def_cfa_offset 8
 1701              		.cfi_offset 7, -8
 1702              		.cfi_offset 14, -4
 1703 093a 84B0     		sub	sp, sp, #16
 1704              	.LCFI58:
 1705              		.cfi_def_cfa_offset 24
 1706 093c 00AF     		add	r7, sp, #0
 1707              	.LCFI59:
 1708              		.cfi_def_cfa_register 7
 1709 093e 7860     		str	r0, [r7, #4]
 758:../Libraries/STM32_USB_OTG_Driver/src/usb_core.c ****   USB_OTG_STS       status = USB_OTG_OK;
 1710              		.loc 1 758 0
 1711 0940 4FF00003 		mov	r3, #0
 1712 0944 FB73     		strb	r3, [r7, #15]
 759:../Libraries/STM32_USB_OTG_Driver/src/usb_core.c ****   USB_OTG_GINTMSK_TypeDef  intmsk;
 760:../Libraries/STM32_USB_OTG_Driver/src/usb_core.c ****   intmsk.d32 = 0;
 1713              		.loc 1 760 0
 1714 0946 4FF00003 		mov	r3, #0
 1715 094a BB60     		str	r3, [r7, #8]
 761:../Libraries/STM32_USB_OTG_Driver/src/usb_core.c ****   /* Disable all interrupts. */
 762:../Libraries/STM32_USB_OTG_Driver/src/usb_core.c ****   USB_OTG_WRITE_REG32(&pdev->regs.GREGS->GINTMSK, 0);
 1716              		.loc 1 762 0
 1717 094c 7B68     		ldr	r3, [r7, #4]
 1718 094e DB68     		ldr	r3, [r3, #12]
 1719 0950 4FF00002 		mov	r2, #0
 1720 0954 9A61     		str	r2, [r3, #24]
 763:../Libraries/STM32_USB_OTG_Driver/src/usb_core.c ****   
 764:../Libraries/STM32_USB_OTG_Driver/src/usb_core.c ****   /* Clear any pending interrupts. */
 765:../Libraries/STM32_USB_OTG_Driver/src/usb_core.c ****   USB_OTG_WRITE_REG32(&pdev->regs.GREGS->GINTSTS, 0xFFFFFFFF);
 1721              		.loc 1 765 0
 1722 0956 7B68     		ldr	r3, [r7, #4]
 1723 0958 DB68     		ldr	r3, [r3, #12]
 1724 095a 4FF0FF32 		mov	r2, #-1
 1725 095e 5A61     		str	r2, [r3, #20]
 766:../Libraries/STM32_USB_OTG_Driver/src/usb_core.c ****   
 767:../Libraries/STM32_USB_OTG_Driver/src/usb_core.c ****   /* Enable the common interrupts */
 768:../Libraries/STM32_USB_OTG_Driver/src/usb_core.c ****   USB_OTG_EnableCommonInt(pdev);
 1726              		.loc 1 768 0
 1727 0960 7868     		ldr	r0, [r7, #4]
 1728 0962 FFF74DFB 		bl	USB_OTG_EnableCommonInt
 769:../Libraries/STM32_USB_OTG_Driver/src/usb_core.c ****   
 770:../Libraries/STM32_USB_OTG_Driver/src/usb_core.c ****   if (pdev->cfg.dma_enable == 0)
 1729              		.loc 1 770 0
 1730 0966 7B68     		ldr	r3, [r7, #4]
 1731 0968 DB78     		ldrb	r3, [r3, #3]	@ zero_extendqisi2
 1732 096a 002B     		cmp	r3, #0
 1733 096c 03D1     		bne	.L89
 771:../Libraries/STM32_USB_OTG_Driver/src/usb_core.c ****   {  
 772:../Libraries/STM32_USB_OTG_Driver/src/usb_core.c ****     intmsk.b.rxstsqlvl  = 1;
 1734              		.loc 1 772 0
 1735 096e BB68     		ldr	r3, [r7, #8]
 1736 0970 43F01003 		orr	r3, r3, #16
 1737 0974 BB60     		str	r3, [r7, #8]
 1738              	.L89:
 773:../Libraries/STM32_USB_OTG_Driver/src/usb_core.c ****   }  
 774:../Libraries/STM32_USB_OTG_Driver/src/usb_core.c ****   intmsk.b.portintr   = 1;
 1739              		.loc 1 774 0
 1740 0976 BB68     		ldr	r3, [r7, #8]
 1741 0978 43F08073 		orr	r3, r3, #16777216
 1742 097c BB60     		str	r3, [r7, #8]
 775:../Libraries/STM32_USB_OTG_Driver/src/usb_core.c ****   intmsk.b.hcintr     = 1;
 1743              		.loc 1 775 0
 1744 097e BB68     		ldr	r3, [r7, #8]
 1745 0980 43F00073 		orr	r3, r3, #33554432
 1746 0984 BB60     		str	r3, [r7, #8]
 776:../Libraries/STM32_USB_OTG_Driver/src/usb_core.c ****   intmsk.b.disconnect = 1;  
 1747              		.loc 1 776 0
 1748 0986 BB68     		ldr	r3, [r7, #8]
 1749 0988 43F00053 		orr	r3, r3, #536870912
 1750 098c BB60     		str	r3, [r7, #8]
 777:../Libraries/STM32_USB_OTG_Driver/src/usb_core.c ****   intmsk.b.sofintr    = 1;  
 1751              		.loc 1 777 0
 1752 098e BB68     		ldr	r3, [r7, #8]
 1753 0990 43F00803 		orr	r3, r3, #8
 1754 0994 BB60     		str	r3, [r7, #8]
 778:../Libraries/STM32_USB_OTG_Driver/src/usb_core.c ****   intmsk.b.incomplisoout  = 1; 
 1755              		.loc 1 778 0
 1756 0996 BB68     		ldr	r3, [r7, #8]
 1757 0998 43F40013 		orr	r3, r3, #2097152
 1758 099c BB60     		str	r3, [r7, #8]
 779:../Libraries/STM32_USB_OTG_Driver/src/usb_core.c ****   USB_OTG_MODIFY_REG32(&pdev->regs.GREGS->GINTMSK, intmsk.d32, intmsk.d32);
 1759              		.loc 1 779 0
 1760 099e 7B68     		ldr	r3, [r7, #4]
 1761 09a0 DB68     		ldr	r3, [r3, #12]
 1762 09a2 7A68     		ldr	r2, [r7, #4]
 1763 09a4 D268     		ldr	r2, [r2, #12]
 1764 09a6 9169     		ldr	r1, [r2, #24]
 1765 09a8 BA68     		ldr	r2, [r7, #8]
 1766 09aa 6FEA0202 		mvn	r2, r2
 1767 09ae 1140     		ands	r1, r1, r2
 1768 09b0 BA68     		ldr	r2, [r7, #8]
 1769 09b2 0A43     		orrs	r2, r2, r1
 1770 09b4 9A61     		str	r2, [r3, #24]
 780:../Libraries/STM32_USB_OTG_Driver/src/usb_core.c ****   return status;
 1771              		.loc 1 780 0
 1772 09b6 FB7B     		ldrb	r3, [r7, #15]	@ zero_extendqisi2
 781:../Libraries/STM32_USB_OTG_Driver/src/usb_core.c **** }
 1773              		.loc 1 781 0
 1774 09b8 1846     		mov	r0, r3
 1775 09ba 07F11007 		add	r7, r7, #16
 1776 09be BD46     		mov	sp, r7
 1777 09c0 80BD     		pop	{r7, pc}
 1778              		.cfi_endproc
 1779              	.LFE129:
 1781 09c2 00BF     		.align	2
 1782              		.global	USB_OTG_InitFSLSPClkSel
 1783              		.thumb
 1784              		.thumb_func
 1786              	USB_OTG_InitFSLSPClkSel:
 1787              	.LFB130:
 782:../Libraries/STM32_USB_OTG_Driver/src/usb_core.c **** 
 783:../Libraries/STM32_USB_OTG_Driver/src/usb_core.c **** /**
 784:../Libraries/STM32_USB_OTG_Driver/src/usb_core.c **** * @brief  USB_OTG_InitFSLSPClkSel : Initializes the FSLSPClkSel field of the 
 785:../Libraries/STM32_USB_OTG_Driver/src/usb_core.c **** *         HCFG register on the PHY type
 786:../Libraries/STM32_USB_OTG_Driver/src/usb_core.c **** * @param  pdev : Selected device
 787:../Libraries/STM32_USB_OTG_Driver/src/usb_core.c **** * @param  freq : clock frequency
 788:../Libraries/STM32_USB_OTG_Driver/src/usb_core.c **** * @retval None
 789:../Libraries/STM32_USB_OTG_Driver/src/usb_core.c **** */
 790:../Libraries/STM32_USB_OTG_Driver/src/usb_core.c **** void USB_OTG_InitFSLSPClkSel(USB_OTG_CORE_HANDLE *pdev , uint8_t freq)
 791:../Libraries/STM32_USB_OTG_Driver/src/usb_core.c **** {
 1788              		.loc 1 791 0
 1789              		.cfi_startproc
 1790              		@ args = 0, pretend = 0, frame = 16
 1791              		@ frame_needed = 1, uses_anonymous_args = 0
 1792              		@ link register save eliminated.
 1793 09c4 80B4     		push	{r7}
 1794              	.LCFI60:
 1795              		.cfi_def_cfa_offset 4
 1796              		.cfi_offset 7, -4
 1797 09c6 85B0     		sub	sp, sp, #20
 1798              	.LCFI61:
 1799              		.cfi_def_cfa_offset 24
 1800 09c8 00AF     		add	r7, sp, #0
 1801              	.LCFI62:
 1802              		.cfi_def_cfa_register 7
 1803 09ca 7860     		str	r0, [r7, #4]
 1804 09cc 0B46     		mov	r3, r1
 1805 09ce FB70     		strb	r3, [r7, #3]
 792:../Libraries/STM32_USB_OTG_Driver/src/usb_core.c ****   USB_OTG_HCFG_TypeDef   hcfg;
 793:../Libraries/STM32_USB_OTG_Driver/src/usb_core.c ****   
 794:../Libraries/STM32_USB_OTG_Driver/src/usb_core.c ****   hcfg.d32 = USB_OTG_READ_REG32(&pdev->regs.HREGS->HCFG);
 1806              		.loc 1 794 0
 1807 09d0 7B68     		ldr	r3, [r7, #4]
 1808 09d2 5B69     		ldr	r3, [r3, #20]
 1809 09d4 1B68     		ldr	r3, [r3, #0]
 1810 09d6 FB60     		str	r3, [r7, #12]
 795:../Libraries/STM32_USB_OTG_Driver/src/usb_core.c ****   hcfg.b.fslspclksel = freq;
 1811              		.loc 1 795 0
 1812 09d8 FB78     		ldrb	r3, [r7, #3]
 1813 09da 03F00303 		and	r3, r3, #3
 1814 09de DAB2     		uxtb	r2, r3
 1815 09e0 3B7B     		ldrb	r3, [r7, #12]
 1816 09e2 62F30103 		bfi	r3, r2, #0, #2
 1817 09e6 3B73     		strb	r3, [r7, #12]
 796:../Libraries/STM32_USB_OTG_Driver/src/usb_core.c ****   USB_OTG_WRITE_REG32(&pdev->regs.HREGS->HCFG, hcfg.d32);
 1818              		.loc 1 796 0
 1819 09e8 7B68     		ldr	r3, [r7, #4]
 1820 09ea 5B69     		ldr	r3, [r3, #20]
 1821 09ec FA68     		ldr	r2, [r7, #12]
 1822 09ee 1A60     		str	r2, [r3, #0]
 797:../Libraries/STM32_USB_OTG_Driver/src/usb_core.c **** }
 1823              		.loc 1 797 0
 1824 09f0 07F11407 		add	r7, r7, #20
 1825 09f4 BD46     		mov	sp, r7
 1826 09f6 80BC     		pop	{r7}
 1827 09f8 7047     		bx	lr
 1828              		.cfi_endproc
 1829              	.LFE130:
 1831 09fa 00BF     		.align	2
 1832              		.global	USB_OTG_ReadHPRT0
 1833              		.thumb
 1834              		.thumb_func
 1836              	USB_OTG_ReadHPRT0:
 1837              	.LFB131:
 798:../Libraries/STM32_USB_OTG_Driver/src/usb_core.c **** 
 799:../Libraries/STM32_USB_OTG_Driver/src/usb_core.c **** 
 800:../Libraries/STM32_USB_OTG_Driver/src/usb_core.c **** /**
 801:../Libraries/STM32_USB_OTG_Driver/src/usb_core.c **** * @brief  USB_OTG_ReadHPRT0 : Reads HPRT0 to modify later
 802:../Libraries/STM32_USB_OTG_Driver/src/usb_core.c **** * @param  pdev : Selected device
 803:../Libraries/STM32_USB_OTG_Driver/src/usb_core.c **** * @retval HPRT0 value
 804:../Libraries/STM32_USB_OTG_Driver/src/usb_core.c **** */
 805:../Libraries/STM32_USB_OTG_Driver/src/usb_core.c **** uint32_t USB_OTG_ReadHPRT0(USB_OTG_CORE_HANDLE *pdev)
 806:../Libraries/STM32_USB_OTG_Driver/src/usb_core.c **** {
 1838              		.loc 1 806 0
 1839              		.cfi_startproc
 1840              		@ args = 0, pretend = 0, frame = 16
 1841              		@ frame_needed = 1, uses_anonymous_args = 0
 1842              		@ link register save eliminated.
 1843 09fc 80B4     		push	{r7}
 1844              	.LCFI63:
 1845              		.cfi_def_cfa_offset 4
 1846              		.cfi_offset 7, -4
 1847 09fe 85B0     		sub	sp, sp, #20
 1848              	.LCFI64:
 1849              		.cfi_def_cfa_offset 24
 1850 0a00 00AF     		add	r7, sp, #0
 1851              	.LCFI65:
 1852              		.cfi_def_cfa_register 7
 1853 0a02 7860     		str	r0, [r7, #4]
 807:../Libraries/STM32_USB_OTG_Driver/src/usb_core.c ****   USB_OTG_HPRT0_TypeDef  hprt0;
 808:../Libraries/STM32_USB_OTG_Driver/src/usb_core.c ****   
 809:../Libraries/STM32_USB_OTG_Driver/src/usb_core.c ****   hprt0.d32 = USB_OTG_READ_REG32(pdev->regs.HPRT0);
 1854              		.loc 1 809 0
 1855 0a04 7B68     		ldr	r3, [r7, #4]
 1856 0a06 D3F8CC30 		ldr	r3, [r3, #204]
 1857 0a0a 1B68     		ldr	r3, [r3, #0]
 1858 0a0c FB60     		str	r3, [r7, #12]
 810:../Libraries/STM32_USB_OTG_Driver/src/usb_core.c ****   hprt0.b.prtena = 0;
 1859              		.loc 1 810 0
 1860 0a0e FB68     		ldr	r3, [r7, #12]
 1861 0a10 6FF38203 		bfc	r3, #2, #1
 1862 0a14 FB60     		str	r3, [r7, #12]
 811:../Libraries/STM32_USB_OTG_Driver/src/usb_core.c ****   hprt0.b.prtconndet = 0;
 1863              		.loc 1 811 0
 1864 0a16 FB68     		ldr	r3, [r7, #12]
 1865 0a18 6FF34103 		bfc	r3, #1, #1
 1866 0a1c FB60     		str	r3, [r7, #12]
 812:../Libraries/STM32_USB_OTG_Driver/src/usb_core.c ****   hprt0.b.prtenchng = 0;
 1867              		.loc 1 812 0
 1868 0a1e FB68     		ldr	r3, [r7, #12]
 1869 0a20 6FF3C303 		bfc	r3, #3, #1
 1870 0a24 FB60     		str	r3, [r7, #12]
 813:../Libraries/STM32_USB_OTG_Driver/src/usb_core.c ****   hprt0.b.prtovrcurrchng = 0;
 1871              		.loc 1 813 0
 1872 0a26 FB68     		ldr	r3, [r7, #12]
 1873 0a28 6FF34513 		bfc	r3, #5, #1
 1874 0a2c FB60     		str	r3, [r7, #12]
 814:../Libraries/STM32_USB_OTG_Driver/src/usb_core.c ****   return hprt0.d32;
 1875              		.loc 1 814 0
 1876 0a2e FB68     		ldr	r3, [r7, #12]
 815:../Libraries/STM32_USB_OTG_Driver/src/usb_core.c **** }
 1877              		.loc 1 815 0
 1878 0a30 1846     		mov	r0, r3
 1879 0a32 07F11407 		add	r7, r7, #20
 1880 0a36 BD46     		mov	sp, r7
 1881 0a38 80BC     		pop	{r7}
 1882 0a3a 7047     		bx	lr
 1883              		.cfi_endproc
 1884              	.LFE131:
 1886              		.align	2
 1887              		.global	USB_OTG_ReadHostAllChannels_intr
 1888              		.thumb
 1889              		.thumb_func
 1891              	USB_OTG_ReadHostAllChannels_intr:
 1892              	.LFB132:
 816:../Libraries/STM32_USB_OTG_Driver/src/usb_core.c **** 
 817:../Libraries/STM32_USB_OTG_Driver/src/usb_core.c **** 
 818:../Libraries/STM32_USB_OTG_Driver/src/usb_core.c **** /**
 819:../Libraries/STM32_USB_OTG_Driver/src/usb_core.c **** * @brief  USB_OTG_ReadHostAllChannels_intr : Register PCD Callbacks
 820:../Libraries/STM32_USB_OTG_Driver/src/usb_core.c **** * @param  pdev : Selected device
 821:../Libraries/STM32_USB_OTG_Driver/src/usb_core.c **** * @retval Status
 822:../Libraries/STM32_USB_OTG_Driver/src/usb_core.c **** */
 823:../Libraries/STM32_USB_OTG_Driver/src/usb_core.c **** uint32_t USB_OTG_ReadHostAllChannels_intr (USB_OTG_CORE_HANDLE *pdev)
 824:../Libraries/STM32_USB_OTG_Driver/src/usb_core.c **** {
 1893              		.loc 1 824 0
 1894              		.cfi_startproc
 1895              		@ args = 0, pretend = 0, frame = 8
 1896              		@ frame_needed = 1, uses_anonymous_args = 0
 1897              		@ link register save eliminated.
 1898 0a3c 80B4     		push	{r7}
 1899              	.LCFI66:
 1900              		.cfi_def_cfa_offset 4
 1901              		.cfi_offset 7, -4
 1902 0a3e 83B0     		sub	sp, sp, #12
 1903              	.LCFI67:
 1904              		.cfi_def_cfa_offset 16
 1905 0a40 00AF     		add	r7, sp, #0
 1906              	.LCFI68:
 1907              		.cfi_def_cfa_register 7
 1908 0a42 7860     		str	r0, [r7, #4]
 825:../Libraries/STM32_USB_OTG_Driver/src/usb_core.c ****   return (USB_OTG_READ_REG32 (&pdev->regs.HREGS->HAINT));
 1909              		.loc 1 825 0
 1910 0a44 7B68     		ldr	r3, [r7, #4]
 1911 0a46 5B69     		ldr	r3, [r3, #20]
 1912 0a48 5B69     		ldr	r3, [r3, #20]
 826:../Libraries/STM32_USB_OTG_Driver/src/usb_core.c **** }
 1913              		.loc 1 826 0
 1914 0a4a 1846     		mov	r0, r3
 1915 0a4c 07F10C07 		add	r7, r7, #12
 1916 0a50 BD46     		mov	sp, r7
 1917 0a52 80BC     		pop	{r7}
 1918 0a54 7047     		bx	lr
 1919              		.cfi_endproc
 1920              	.LFE132:
 1922 0a56 00BF     		.align	2
 1923              		.global	USB_OTG_ResetPort
 1924              		.thumb
 1925              		.thumb_func
 1927              	USB_OTG_ResetPort:
 1928              	.LFB133:
 827:../Libraries/STM32_USB_OTG_Driver/src/usb_core.c **** 
 828:../Libraries/STM32_USB_OTG_Driver/src/usb_core.c **** 
 829:../Libraries/STM32_USB_OTG_Driver/src/usb_core.c **** /**
 830:../Libraries/STM32_USB_OTG_Driver/src/usb_core.c **** * @brief  USB_OTG_ResetPort : Reset Host Port
 831:../Libraries/STM32_USB_OTG_Driver/src/usb_core.c **** * @param  pdev : Selected device
 832:../Libraries/STM32_USB_OTG_Driver/src/usb_core.c **** * @retval status
 833:../Libraries/STM32_USB_OTG_Driver/src/usb_core.c **** * @note : (1)The application must wait at least 10 ms (+ 10 ms security)
 834:../Libraries/STM32_USB_OTG_Driver/src/usb_core.c **** *   before clearing the reset bit.
 835:../Libraries/STM32_USB_OTG_Driver/src/usb_core.c **** */
 836:../Libraries/STM32_USB_OTG_Driver/src/usb_core.c **** uint32_t USB_OTG_ResetPort(USB_OTG_CORE_HANDLE *pdev)
 837:../Libraries/STM32_USB_OTG_Driver/src/usb_core.c **** {
 1929              		.loc 1 837 0
 1930              		.cfi_startproc
 1931              		@ args = 0, pretend = 0, frame = 16
 1932              		@ frame_needed = 1, uses_anonymous_args = 0
 1933 0a58 80B5     		push	{r7, lr}
 1934              	.LCFI69:
 1935              		.cfi_def_cfa_offset 8
 1936              		.cfi_offset 7, -8
 1937              		.cfi_offset 14, -4
 1938 0a5a 84B0     		sub	sp, sp, #16
 1939              	.LCFI70:
 1940              		.cfi_def_cfa_offset 24
 1941 0a5c 00AF     		add	r7, sp, #0
 1942              	.LCFI71:
 1943              		.cfi_def_cfa_register 7
 1944 0a5e 7860     		str	r0, [r7, #4]
 838:../Libraries/STM32_USB_OTG_Driver/src/usb_core.c ****   USB_OTG_HPRT0_TypeDef  hprt0;
 839:../Libraries/STM32_USB_OTG_Driver/src/usb_core.c ****   
 840:../Libraries/STM32_USB_OTG_Driver/src/usb_core.c ****   hprt0.d32 = USB_OTG_ReadHPRT0(pdev);
 1945              		.loc 1 840 0
 1946 0a60 7868     		ldr	r0, [r7, #4]
 1947 0a62 FFF7FEFF 		bl	USB_OTG_ReadHPRT0
 1948 0a66 0346     		mov	r3, r0
 1949 0a68 FB60     		str	r3, [r7, #12]
 841:../Libraries/STM32_USB_OTG_Driver/src/usb_core.c ****   hprt0.b.prtrst = 1;
 1950              		.loc 1 841 0
 1951 0a6a FB68     		ldr	r3, [r7, #12]
 1952 0a6c 43F48073 		orr	r3, r3, #256
 1953 0a70 FB60     		str	r3, [r7, #12]
 842:../Libraries/STM32_USB_OTG_Driver/src/usb_core.c ****   USB_OTG_WRITE_REG32(pdev->regs.HPRT0, hprt0.d32);
 1954              		.loc 1 842 0
 1955 0a72 7B68     		ldr	r3, [r7, #4]
 1956 0a74 D3F8CC30 		ldr	r3, [r3, #204]
 1957 0a78 FA68     		ldr	r2, [r7, #12]
 1958 0a7a 1A60     		str	r2, [r3, #0]
 843:../Libraries/STM32_USB_OTG_Driver/src/usb_core.c ****   USB_OTG_BSP_mDelay (10);                                /* See Note #1 */
 1959              		.loc 1 843 0
 1960 0a7c 4FF00A00 		mov	r0, #10
 1961 0a80 FFF7FEFF 		bl	USB_OTG_BSP_mDelay
 844:../Libraries/STM32_USB_OTG_Driver/src/usb_core.c ****   hprt0.b.prtrst = 0;
 1962              		.loc 1 844 0
 1963 0a84 FB68     		ldr	r3, [r7, #12]
 1964 0a86 6FF30823 		bfc	r3, #8, #1
 1965 0a8a FB60     		str	r3, [r7, #12]
 845:../Libraries/STM32_USB_OTG_Driver/src/usb_core.c ****   USB_OTG_WRITE_REG32(pdev->regs.HPRT0, hprt0.d32);
 1966              		.loc 1 845 0
 1967 0a8c 7B68     		ldr	r3, [r7, #4]
 1968 0a8e D3F8CC30 		ldr	r3, [r3, #204]
 1969 0a92 FA68     		ldr	r2, [r7, #12]
 1970 0a94 1A60     		str	r2, [r3, #0]
 846:../Libraries/STM32_USB_OTG_Driver/src/usb_core.c ****   USB_OTG_BSP_mDelay (20);   
 1971              		.loc 1 846 0
 1972 0a96 4FF01400 		mov	r0, #20
 1973 0a9a FFF7FEFF 		bl	USB_OTG_BSP_mDelay
 847:../Libraries/STM32_USB_OTG_Driver/src/usb_core.c ****   return 1;
 1974              		.loc 1 847 0
 1975 0a9e 4FF00103 		mov	r3, #1
 848:../Libraries/STM32_USB_OTG_Driver/src/usb_core.c **** }
 1976              		.loc 1 848 0
 1977 0aa2 1846     		mov	r0, r3
 1978 0aa4 07F11007 		add	r7, r7, #16
 1979 0aa8 BD46     		mov	sp, r7
 1980 0aaa 80BD     		pop	{r7, pc}
 1981              		.cfi_endproc
 1982              	.LFE133:
 1984              		.align	2
 1985              		.global	USB_OTG_HC_Init
 1986              		.thumb
 1987              		.thumb_func
 1989              	USB_OTG_HC_Init:
 1990              	.LFB134:
 849:../Libraries/STM32_USB_OTG_Driver/src/usb_core.c **** 
 850:../Libraries/STM32_USB_OTG_Driver/src/usb_core.c **** 
 851:../Libraries/STM32_USB_OTG_Driver/src/usb_core.c **** /**
 852:../Libraries/STM32_USB_OTG_Driver/src/usb_core.c **** * @brief  USB_OTG_HC_Init : Prepares a host channel for transferring packets
 853:../Libraries/STM32_USB_OTG_Driver/src/usb_core.c **** * @param  pdev : Selected device
 854:../Libraries/STM32_USB_OTG_Driver/src/usb_core.c **** * @param  hc_num : channel number
 855:../Libraries/STM32_USB_OTG_Driver/src/usb_core.c **** * @retval USB_OTG_STS : status
 856:../Libraries/STM32_USB_OTG_Driver/src/usb_core.c **** */
 857:../Libraries/STM32_USB_OTG_Driver/src/usb_core.c **** USB_OTG_STS USB_OTG_HC_Init(USB_OTG_CORE_HANDLE *pdev , uint8_t hc_num)
 858:../Libraries/STM32_USB_OTG_Driver/src/usb_core.c **** {
 1991              		.loc 1 858 0
 1992              		.cfi_startproc
 1993              		@ args = 0, pretend = 0, frame = 32
 1994              		@ frame_needed = 1, uses_anonymous_args = 0
 1995              		@ link register save eliminated.
 1996 0aac 80B4     		push	{r7}
 1997              	.LCFI72:
 1998              		.cfi_def_cfa_offset 4
 1999              		.cfi_offset 7, -4
 2000 0aae 89B0     		sub	sp, sp, #36
 2001              	.LCFI73:
 2002              		.cfi_def_cfa_offset 40
 2003 0ab0 00AF     		add	r7, sp, #0
 2004              	.LCFI74:
 2005              		.cfi_def_cfa_register 7
 2006 0ab2 7860     		str	r0, [r7, #4]
 2007 0ab4 0B46     		mov	r3, r1
 2008 0ab6 FB70     		strb	r3, [r7, #3]
 859:../Libraries/STM32_USB_OTG_Driver/src/usb_core.c ****   USB_OTG_STS status = USB_OTG_OK;
 2009              		.loc 1 859 0
 2010 0ab8 4FF00003 		mov	r3, #0
 2011 0abc FB77     		strb	r3, [r7, #31]
 860:../Libraries/STM32_USB_OTG_Driver/src/usb_core.c ****   uint32_t intr_enable = 0;
 2012              		.loc 1 860 0
 2013 0abe 4FF00003 		mov	r3, #0
 2014 0ac2 BB61     		str	r3, [r7, #24]
 861:../Libraries/STM32_USB_OTG_Driver/src/usb_core.c ****   USB_OTG_HCINTMSK_TypeDef  hcintmsk;
 862:../Libraries/STM32_USB_OTG_Driver/src/usb_core.c ****   USB_OTG_GINTMSK_TypeDef    gintmsk;
 863:../Libraries/STM32_USB_OTG_Driver/src/usb_core.c ****   USB_OTG_HCCHAR_TypeDef     hcchar;
 864:../Libraries/STM32_USB_OTG_Driver/src/usb_core.c ****   USB_OTG_HCINTn_TypeDef     hcint;
 865:../Libraries/STM32_USB_OTG_Driver/src/usb_core.c ****   
 866:../Libraries/STM32_USB_OTG_Driver/src/usb_core.c ****   
 867:../Libraries/STM32_USB_OTG_Driver/src/usb_core.c ****   gintmsk.d32 = 0;
 2015              		.loc 1 867 0
 2016 0ac4 4FF00003 		mov	r3, #0
 2017 0ac8 3B61     		str	r3, [r7, #16]
 868:../Libraries/STM32_USB_OTG_Driver/src/usb_core.c ****   hcintmsk.d32 = 0;
 2018              		.loc 1 868 0
 2019 0aca 4FF00003 		mov	r3, #0
 2020 0ace 7B61     		str	r3, [r7, #20]
 869:../Libraries/STM32_USB_OTG_Driver/src/usb_core.c ****   hcchar.d32 = 0;
 2021              		.loc 1 869 0
 2022 0ad0 4FF00003 		mov	r3, #0
 2023 0ad4 FB60     		str	r3, [r7, #12]
 870:../Libraries/STM32_USB_OTG_Driver/src/usb_core.c ****   
 871:../Libraries/STM32_USB_OTG_Driver/src/usb_core.c ****   /* Clear old interrupt conditions for this host channel. */
 872:../Libraries/STM32_USB_OTG_Driver/src/usb_core.c ****   hcint.d32 = 0xFFFFFFFF;
 2024              		.loc 1 872 0
 2025 0ad6 4FF0FF33 		mov	r3, #-1
 2026 0ada BB60     		str	r3, [r7, #8]
 873:../Libraries/STM32_USB_OTG_Driver/src/usb_core.c ****   USB_OTG_WRITE_REG32(&pdev->regs.HC_REGS[hc_num]->HCINT, hcint.d32);
 2027              		.loc 1 873 0
 2028 0adc FB78     		ldrb	r3, [r7, #3]	@ zero_extendqisi2
 2029 0ade 7A68     		ldr	r2, [r7, #4]
 2030 0ae0 03F12203 		add	r3, r3, #34
 2031 0ae4 4FEA8303 		lsl	r3, r3, #2
 2032 0ae8 D318     		adds	r3, r2, r3
 2033 0aea 9B68     		ldr	r3, [r3, #8]
 2034 0aec BA68     		ldr	r2, [r7, #8]
 2035 0aee 9A60     		str	r2, [r3, #8]
 874:../Libraries/STM32_USB_OTG_Driver/src/usb_core.c ****   
 875:../Libraries/STM32_USB_OTG_Driver/src/usb_core.c ****   /* Enable channel interrupts required for this transfer. */
 876:../Libraries/STM32_USB_OTG_Driver/src/usb_core.c ****   hcintmsk.d32 = 0;
 2036              		.loc 1 876 0
 2037 0af0 4FF00003 		mov	r3, #0
 2038 0af4 7B61     		str	r3, [r7, #20]
 877:../Libraries/STM32_USB_OTG_Driver/src/usb_core.c ****   
 878:../Libraries/STM32_USB_OTG_Driver/src/usb_core.c ****   if (pdev->cfg.dma_enable == 1)
 2039              		.loc 1 878 0
 2040 0af6 7B68     		ldr	r3, [r7, #4]
 2041 0af8 DB78     		ldrb	r3, [r3, #3]	@ zero_extendqisi2
 2042 0afa 012B     		cmp	r3, #1
 2043 0afc 03D1     		bne	.L99
 879:../Libraries/STM32_USB_OTG_Driver/src/usb_core.c ****   {
 880:../Libraries/STM32_USB_OTG_Driver/src/usb_core.c ****     hcintmsk.b.ahberr = 1;
 2044              		.loc 1 880 0
 2045 0afe 7B69     		ldr	r3, [r7, #20]
 2046 0b00 43F00403 		orr	r3, r3, #4
 2047 0b04 7B61     		str	r3, [r7, #20]
 2048              	.L99:
 881:../Libraries/STM32_USB_OTG_Driver/src/usb_core.c ****   }
 882:../Libraries/STM32_USB_OTG_Driver/src/usb_core.c ****   
 883:../Libraries/STM32_USB_OTG_Driver/src/usb_core.c ****   switch (pdev->host.hc[hc_num].ep_type) 
 2049              		.loc 1 883 0
 2050 0b06 FB78     		ldrb	r3, [r7, #3]	@ zero_extendqisi2
 2051 0b08 7A68     		ldr	r2, [r7, #4]
 2052 0b0a 4FEA4313 		lsl	r3, r3, #5
 2053 0b0e D318     		adds	r3, r2, r3
 2054 0b10 03F56A73 		add	r3, r3, #936
 2055 0b14 5B7A     		ldrb	r3, [r3, #9]	@ zero_extendqisi2
 2056 0b16 032B     		cmp	r3, #3
 2057 0b18 00F28D80 		bhi	.L100
 2058 0b1c 01A2     		adr	r2, .L104
 2059 0b1e 52F823F0 		ldr	pc, [r2, r3, lsl #2]
 2060 0b22 00BF     		.align	2
 2061              	.L104:
 2062 0b24 350B0000 		.word	.L101+1
 2063 0b28 EF0B0000 		.word	.L102+1
 2064 0b2c 350B0000 		.word	.L101+1
 2065 0b30 A10B0000 		.word	.L103+1
 2066              	.L101:
 884:../Libraries/STM32_USB_OTG_Driver/src/usb_core.c ****   {
 885:../Libraries/STM32_USB_OTG_Driver/src/usb_core.c ****   case EP_TYPE_CTRL:
 886:../Libraries/STM32_USB_OTG_Driver/src/usb_core.c ****   case EP_TYPE_BULK:
 887:../Libraries/STM32_USB_OTG_Driver/src/usb_core.c ****     hcintmsk.b.xfercompl = 1;
 2067              		.loc 1 887 0
 2068 0b34 7B69     		ldr	r3, [r7, #20]
 2069 0b36 43F00103 		orr	r3, r3, #1
 2070 0b3a 7B61     		str	r3, [r7, #20]
 888:../Libraries/STM32_USB_OTG_Driver/src/usb_core.c ****     hcintmsk.b.stall = 1;
 2071              		.loc 1 888 0
 2072 0b3c 7B69     		ldr	r3, [r7, #20]
 2073 0b3e 43F00803 		orr	r3, r3, #8
 2074 0b42 7B61     		str	r3, [r7, #20]
 889:../Libraries/STM32_USB_OTG_Driver/src/usb_core.c ****     hcintmsk.b.xacterr = 1;
 2075              		.loc 1 889 0
 2076 0b44 7B69     		ldr	r3, [r7, #20]
 2077 0b46 43F08003 		orr	r3, r3, #128
 2078 0b4a 7B61     		str	r3, [r7, #20]
 890:../Libraries/STM32_USB_OTG_Driver/src/usb_core.c ****     hcintmsk.b.datatglerr = 1;
 2079              		.loc 1 890 0
 2080 0b4c 7B69     		ldr	r3, [r7, #20]
 2081 0b4e 43F48063 		orr	r3, r3, #1024
 2082 0b52 7B61     		str	r3, [r7, #20]
 891:../Libraries/STM32_USB_OTG_Driver/src/usb_core.c ****     hcintmsk.b.nak = 1;  
 2083              		.loc 1 891 0
 2084 0b54 7B69     		ldr	r3, [r7, #20]
 2085 0b56 43F01003 		orr	r3, r3, #16
 2086 0b5a 7B61     		str	r3, [r7, #20]
 892:../Libraries/STM32_USB_OTG_Driver/src/usb_core.c ****     if (pdev->host.hc[hc_num].ep_is_in) 
 2087              		.loc 1 892 0
 2088 0b5c FB78     		ldrb	r3, [r7, #3]	@ zero_extendqisi2
 2089 0b5e 7A68     		ldr	r2, [r7, #4]
 2090 0b60 4FEA4313 		lsl	r3, r3, #5
 2091 0b64 D318     		adds	r3, r2, r3
 2092 0b66 03F56A73 		add	r3, r3, #936
 2093 0b6a 9B79     		ldrb	r3, [r3, #6]	@ zero_extendqisi2
 2094 0b6c 002B     		cmp	r3, #0
 2095 0b6e 04D0     		beq	.L105
 893:../Libraries/STM32_USB_OTG_Driver/src/usb_core.c ****     {
 894:../Libraries/STM32_USB_OTG_Driver/src/usb_core.c ****       hcintmsk.b.bblerr = 1;
 2096              		.loc 1 894 0
 2097 0b70 7B69     		ldr	r3, [r7, #20]
 2098 0b72 43F48073 		orr	r3, r3, #256
 2099 0b76 7B61     		str	r3, [r7, #20]
 895:../Libraries/STM32_USB_OTG_Driver/src/usb_core.c ****     } 
 896:../Libraries/STM32_USB_OTG_Driver/src/usb_core.c ****     else 
 897:../Libraries/STM32_USB_OTG_Driver/src/usb_core.c ****     {
 898:../Libraries/STM32_USB_OTG_Driver/src/usb_core.c ****       hcintmsk.b.nyet = 1;
 899:../Libraries/STM32_USB_OTG_Driver/src/usb_core.c ****       if (pdev->host.hc[hc_num].do_ping) 
 900:../Libraries/STM32_USB_OTG_Driver/src/usb_core.c ****       {
 901:../Libraries/STM32_USB_OTG_Driver/src/usb_core.c ****         hcintmsk.b.ack = 1;
 902:../Libraries/STM32_USB_OTG_Driver/src/usb_core.c ****       }
 903:../Libraries/STM32_USB_OTG_Driver/src/usb_core.c ****     }
 904:../Libraries/STM32_USB_OTG_Driver/src/usb_core.c ****     break;
 2100              		.loc 1 904 0
 2101 0b78 58E0     		b	.L111
 2102              	.L105:
 898:../Libraries/STM32_USB_OTG_Driver/src/usb_core.c ****       hcintmsk.b.nyet = 1;
 2103              		.loc 1 898 0
 2104 0b7a 7B69     		ldr	r3, [r7, #20]
 2105 0b7c 43F04003 		orr	r3, r3, #64
 2106 0b80 7B61     		str	r3, [r7, #20]
 899:../Libraries/STM32_USB_OTG_Driver/src/usb_core.c ****       if (pdev->host.hc[hc_num].do_ping) 
 2107              		.loc 1 899 0
 2108 0b82 FB78     		ldrb	r3, [r7, #3]	@ zero_extendqisi2
 2109 0b84 7A68     		ldr	r2, [r7, #4]
 2110 0b86 4FEA4313 		lsl	r3, r3, #5
 2111 0b8a D318     		adds	r3, r2, r3
 2112 0b8c 03F56A73 		add	r3, r3, #936
 2113 0b90 1B7A     		ldrb	r3, [r3, #8]	@ zero_extendqisi2
 2114 0b92 002B     		cmp	r3, #0
 2115 0b94 4AD0     		beq	.L111
 901:../Libraries/STM32_USB_OTG_Driver/src/usb_core.c ****         hcintmsk.b.ack = 1;
 2116              		.loc 1 901 0
 2117 0b96 7B69     		ldr	r3, [r7, #20]
 2118 0b98 43F02003 		orr	r3, r3, #32
 2119 0b9c 7B61     		str	r3, [r7, #20]
 2120              		.loc 1 904 0
 2121 0b9e 45E0     		b	.L111
 2122              	.L103:
 905:../Libraries/STM32_USB_OTG_Driver/src/usb_core.c ****   case EP_TYPE_INTR:
 906:../Libraries/STM32_USB_OTG_Driver/src/usb_core.c ****     hcintmsk.b.xfercompl = 1;
 2123              		.loc 1 906 0
 2124 0ba0 7B69     		ldr	r3, [r7, #20]
 2125 0ba2 43F00103 		orr	r3, r3, #1
 2126 0ba6 7B61     		str	r3, [r7, #20]
 907:../Libraries/STM32_USB_OTG_Driver/src/usb_core.c ****     hcintmsk.b.nak = 1;
 2127              		.loc 1 907 0
 2128 0ba8 7B69     		ldr	r3, [r7, #20]
 2129 0baa 43F01003 		orr	r3, r3, #16
 2130 0bae 7B61     		str	r3, [r7, #20]
 908:../Libraries/STM32_USB_OTG_Driver/src/usb_core.c ****     hcintmsk.b.stall = 1;
 2131              		.loc 1 908 0
 2132 0bb0 7B69     		ldr	r3, [r7, #20]
 2133 0bb2 43F00803 		orr	r3, r3, #8
 2134 0bb6 7B61     		str	r3, [r7, #20]
 909:../Libraries/STM32_USB_OTG_Driver/src/usb_core.c ****     hcintmsk.b.xacterr = 1;
 2135              		.loc 1 909 0
 2136 0bb8 7B69     		ldr	r3, [r7, #20]
 2137 0bba 43F08003 		orr	r3, r3, #128
 2138 0bbe 7B61     		str	r3, [r7, #20]
 910:../Libraries/STM32_USB_OTG_Driver/src/usb_core.c ****     hcintmsk.b.datatglerr = 1;
 2139              		.loc 1 910 0
 2140 0bc0 7B69     		ldr	r3, [r7, #20]
 2141 0bc2 43F48063 		orr	r3, r3, #1024
 2142 0bc6 7B61     		str	r3, [r7, #20]
 911:../Libraries/STM32_USB_OTG_Driver/src/usb_core.c ****     hcintmsk.b.frmovrun = 1;
 2143              		.loc 1 911 0
 2144 0bc8 7B69     		ldr	r3, [r7, #20]
 2145 0bca 43F40073 		orr	r3, r3, #512
 2146 0bce 7B61     		str	r3, [r7, #20]
 912:../Libraries/STM32_USB_OTG_Driver/src/usb_core.c ****     
 913:../Libraries/STM32_USB_OTG_Driver/src/usb_core.c ****     if (pdev->host.hc[hc_num].ep_is_in) 
 2147              		.loc 1 913 0
 2148 0bd0 FB78     		ldrb	r3, [r7, #3]	@ zero_extendqisi2
 2149 0bd2 7A68     		ldr	r2, [r7, #4]
 2150 0bd4 4FEA4313 		lsl	r3, r3, #5
 2151 0bd8 D318     		adds	r3, r2, r3
 2152 0bda 03F56A73 		add	r3, r3, #936
 2153 0bde 9B79     		ldrb	r3, [r3, #6]	@ zero_extendqisi2
 2154 0be0 002B     		cmp	r3, #0
 2155 0be2 25D0     		beq	.L112
 914:../Libraries/STM32_USB_OTG_Driver/src/usb_core.c ****     {
 915:../Libraries/STM32_USB_OTG_Driver/src/usb_core.c ****       hcintmsk.b.bblerr = 1;
 2156              		.loc 1 915 0
 2157 0be4 7B69     		ldr	r3, [r7, #20]
 2158 0be6 43F48073 		orr	r3, r3, #256
 2159 0bea 7B61     		str	r3, [r7, #20]
 916:../Libraries/STM32_USB_OTG_Driver/src/usb_core.c ****     }
 917:../Libraries/STM32_USB_OTG_Driver/src/usb_core.c ****     
 918:../Libraries/STM32_USB_OTG_Driver/src/usb_core.c ****     break;
 2160              		.loc 1 918 0
 2161 0bec 20E0     		b	.L112
 2162              	.L102:
 919:../Libraries/STM32_USB_OTG_Driver/src/usb_core.c ****   case EP_TYPE_ISOC:
 920:../Libraries/STM32_USB_OTG_Driver/src/usb_core.c ****     hcintmsk.b.xfercompl = 1;
 2163              		.loc 1 920 0
 2164 0bee 7B69     		ldr	r3, [r7, #20]
 2165 0bf0 43F00103 		orr	r3, r3, #1
 2166 0bf4 7B61     		str	r3, [r7, #20]
 921:../Libraries/STM32_USB_OTG_Driver/src/usb_core.c ****     hcintmsk.b.frmovrun = 1;
 2167              		.loc 1 921 0
 2168 0bf6 7B69     		ldr	r3, [r7, #20]
 2169 0bf8 43F40073 		orr	r3, r3, #512
 2170 0bfc 7B61     		str	r3, [r7, #20]
 922:../Libraries/STM32_USB_OTG_Driver/src/usb_core.c ****     hcintmsk.b.ack = 1;
 2171              		.loc 1 922 0
 2172 0bfe 7B69     		ldr	r3, [r7, #20]
 2173 0c00 43F02003 		orr	r3, r3, #32
 2174 0c04 7B61     		str	r3, [r7, #20]
 923:../Libraries/STM32_USB_OTG_Driver/src/usb_core.c ****     
 924:../Libraries/STM32_USB_OTG_Driver/src/usb_core.c ****     if (pdev->host.hc[hc_num].ep_is_in) 
 2175              		.loc 1 924 0
 2176 0c06 FB78     		ldrb	r3, [r7, #3]	@ zero_extendqisi2
 2177 0c08 7A68     		ldr	r2, [r7, #4]
 2178 0c0a 4FEA4313 		lsl	r3, r3, #5
 2179 0c0e D318     		adds	r3, r2, r3
 2180 0c10 03F56A73 		add	r3, r3, #936
 2181 0c14 9B79     		ldrb	r3, [r3, #6]	@ zero_extendqisi2
 2182 0c16 002B     		cmp	r3, #0
 2183 0c18 0CD0     		beq	.L113
 925:../Libraries/STM32_USB_OTG_Driver/src/usb_core.c ****     {
 926:../Libraries/STM32_USB_OTG_Driver/src/usb_core.c ****       hcintmsk.b.xacterr = 1;
 2184              		.loc 1 926 0
 2185 0c1a 7B69     		ldr	r3, [r7, #20]
 2186 0c1c 43F08003 		orr	r3, r3, #128
 2187 0c20 7B61     		str	r3, [r7, #20]
 927:../Libraries/STM32_USB_OTG_Driver/src/usb_core.c ****       hcintmsk.b.bblerr = 1;
 2188              		.loc 1 927 0
 2189 0c22 7B69     		ldr	r3, [r7, #20]
 2190 0c24 43F48073 		orr	r3, r3, #256
 2191 0c28 7B61     		str	r3, [r7, #20]
 928:../Libraries/STM32_USB_OTG_Driver/src/usb_core.c ****     }
 929:../Libraries/STM32_USB_OTG_Driver/src/usb_core.c ****     break;
 2192              		.loc 1 929 0
 2193 0c2a 03E0     		b	.L113
 2194              	.L111:
 904:../Libraries/STM32_USB_OTG_Driver/src/usb_core.c ****     break;
 2195              		.loc 1 904 0
 2196 0c2c 00BF     		nop
 2197 0c2e 02E0     		b	.L100
 2198              	.L112:
 918:../Libraries/STM32_USB_OTG_Driver/src/usb_core.c ****     break;
 2199              		.loc 1 918 0
 2200 0c30 00BF     		nop
 2201 0c32 00E0     		b	.L100
 2202              	.L113:
 2203              		.loc 1 929 0
 2204 0c34 00BF     		nop
 2205              	.L100:
 930:../Libraries/STM32_USB_OTG_Driver/src/usb_core.c ****   }
 931:../Libraries/STM32_USB_OTG_Driver/src/usb_core.c ****   
 932:../Libraries/STM32_USB_OTG_Driver/src/usb_core.c ****   
 933:../Libraries/STM32_USB_OTG_Driver/src/usb_core.c ****   USB_OTG_WRITE_REG32(&pdev->regs.HC_REGS[hc_num]->HCINTMSK, hcintmsk.d32);
 2206              		.loc 1 933 0
 2207 0c36 FB78     		ldrb	r3, [r7, #3]	@ zero_extendqisi2
 2208 0c38 7A68     		ldr	r2, [r7, #4]
 2209 0c3a 03F12203 		add	r3, r3, #34
 2210 0c3e 4FEA8303 		lsl	r3, r3, #2
 2211 0c42 D318     		adds	r3, r2, r3
 2212 0c44 9B68     		ldr	r3, [r3, #8]
 2213 0c46 7A69     		ldr	r2, [r7, #20]
 2214 0c48 DA60     		str	r2, [r3, #12]
 934:../Libraries/STM32_USB_OTG_Driver/src/usb_core.c ****   
 935:../Libraries/STM32_USB_OTG_Driver/src/usb_core.c ****   
 936:../Libraries/STM32_USB_OTG_Driver/src/usb_core.c ****   /* Enable the top level host channel interrupt. */
 937:../Libraries/STM32_USB_OTG_Driver/src/usb_core.c ****   intr_enable = (1 << hc_num);
 2215              		.loc 1 937 0
 2216 0c4a FB78     		ldrb	r3, [r7, #3]	@ zero_extendqisi2
 2217 0c4c 4FF00102 		mov	r2, #1
 2218 0c50 02FA03F3 		lsl	r3, r2, r3
 2219 0c54 BB61     		str	r3, [r7, #24]
 938:../Libraries/STM32_USB_OTG_Driver/src/usb_core.c ****   USB_OTG_MODIFY_REG32(&pdev->regs.HREGS->HAINTMSK, 0, intr_enable);
 2220              		.loc 1 938 0
 2221 0c56 7B68     		ldr	r3, [r7, #4]
 2222 0c58 5B69     		ldr	r3, [r3, #20]
 2223 0c5a 7A68     		ldr	r2, [r7, #4]
 2224 0c5c 5269     		ldr	r2, [r2, #20]
 2225 0c5e 9169     		ldr	r1, [r2, #24]
 2226 0c60 BA69     		ldr	r2, [r7, #24]
 2227 0c62 0A43     		orrs	r2, r2, r1
 2228 0c64 9A61     		str	r2, [r3, #24]
 939:../Libraries/STM32_USB_OTG_Driver/src/usb_core.c ****   
 940:../Libraries/STM32_USB_OTG_Driver/src/usb_core.c ****   /* Make sure host channel interrupts are enabled. */
 941:../Libraries/STM32_USB_OTG_Driver/src/usb_core.c ****   gintmsk.b.hcintr = 1;
 2229              		.loc 1 941 0
 2230 0c66 3B69     		ldr	r3, [r7, #16]
 2231 0c68 43F00073 		orr	r3, r3, #33554432
 2232 0c6c 3B61     		str	r3, [r7, #16]
 942:../Libraries/STM32_USB_OTG_Driver/src/usb_core.c ****   USB_OTG_MODIFY_REG32(&pdev->regs.GREGS->GINTMSK, 0, gintmsk.d32);
 2233              		.loc 1 942 0
 2234 0c6e 7B68     		ldr	r3, [r7, #4]
 2235 0c70 DB68     		ldr	r3, [r3, #12]
 2236 0c72 7A68     		ldr	r2, [r7, #4]
 2237 0c74 D268     		ldr	r2, [r2, #12]
 2238 0c76 9169     		ldr	r1, [r2, #24]
 2239 0c78 3A69     		ldr	r2, [r7, #16]
 2240 0c7a 0A43     		orrs	r2, r2, r1
 2241 0c7c 9A61     		str	r2, [r3, #24]
 943:../Libraries/STM32_USB_OTG_Driver/src/usb_core.c ****   
 944:../Libraries/STM32_USB_OTG_Driver/src/usb_core.c ****   /* Program the HCCHAR register */
 945:../Libraries/STM32_USB_OTG_Driver/src/usb_core.c ****   hcchar.d32 = 0;
 2242              		.loc 1 945 0
 2243 0c7e 4FF00003 		mov	r3, #0
 2244 0c82 FB60     		str	r3, [r7, #12]
 946:../Libraries/STM32_USB_OTG_Driver/src/usb_core.c ****   hcchar.b.devaddr = pdev->host.hc[hc_num].dev_addr;
 2245              		.loc 1 946 0
 2246 0c84 FB78     		ldrb	r3, [r7, #3]	@ zero_extendqisi2
 2247 0c86 7A68     		ldr	r2, [r7, #4]
 2248 0c88 4FEA4313 		lsl	r3, r3, #5
 2249 0c8c D318     		adds	r3, r2, r3
 2250 0c8e 03F56A73 		add	r3, r3, #936
 2251 0c92 1B79     		ldrb	r3, [r3, #4]	@ zero_extendqisi2
 2252 0c94 03F07F03 		and	r3, r3, #127
 2253 0c98 DAB2     		uxtb	r2, r3
 2254 0c9a FB68     		ldr	r3, [r7, #12]
 2255 0c9c 62F39C53 		bfi	r3, r2, #22, #7
 2256 0ca0 FB60     		str	r3, [r7, #12]
 947:../Libraries/STM32_USB_OTG_Driver/src/usb_core.c ****   hcchar.b.epnum   = pdev->host.hc[hc_num].ep_num;
 2257              		.loc 1 947 0
 2258 0ca2 FB78     		ldrb	r3, [r7, #3]	@ zero_extendqisi2
 2259 0ca4 7A68     		ldr	r2, [r7, #4]
 2260 0ca6 4FEA4313 		lsl	r3, r3, #5
 2261 0caa D318     		adds	r3, r2, r3
 2262 0cac 03F56A73 		add	r3, r3, #936
 2263 0cb0 5B79     		ldrb	r3, [r3, #5]	@ zero_extendqisi2
 2264 0cb2 03F00F03 		and	r3, r3, #15
 2265 0cb6 DAB2     		uxtb	r2, r3
 2266 0cb8 FB68     		ldr	r3, [r7, #12]
 2267 0cba 62F3CE23 		bfi	r3, r2, #11, #4
 2268 0cbe FB60     		str	r3, [r7, #12]
 948:../Libraries/STM32_USB_OTG_Driver/src/usb_core.c ****   hcchar.b.epdir   = pdev->host.hc[hc_num].ep_is_in;
 2269              		.loc 1 948 0
 2270 0cc0 FB78     		ldrb	r3, [r7, #3]	@ zero_extendqisi2
 2271 0cc2 7A68     		ldr	r2, [r7, #4]
 2272 0cc4 4FEA4313 		lsl	r3, r3, #5
 2273 0cc8 D318     		adds	r3, r2, r3
 2274 0cca 03F56A73 		add	r3, r3, #936
 2275 0cce 9B79     		ldrb	r3, [r3, #6]	@ zero_extendqisi2
 2276 0cd0 03F00103 		and	r3, r3, #1
 2277 0cd4 DAB2     		uxtb	r2, r3
 2278 0cd6 FB68     		ldr	r3, [r7, #12]
 2279 0cd8 62F3CF33 		bfi	r3, r2, #15, #1
 2280 0cdc FB60     		str	r3, [r7, #12]
 949:../Libraries/STM32_USB_OTG_Driver/src/usb_core.c ****   hcchar.b.lspddev = (pdev->host.hc[hc_num].speed == HPRT0_PRTSPD_LOW_SPEED);
 2281              		.loc 1 949 0
 2282 0cde FB78     		ldrb	r3, [r7, #3]	@ zero_extendqisi2
 2283 0ce0 7A68     		ldr	r2, [r7, #4]
 2284 0ce2 4FEA4313 		lsl	r3, r3, #5
 2285 0ce6 D318     		adds	r3, r2, r3
 2286 0ce8 03F56A73 		add	r3, r3, #936
 2287 0cec DB79     		ldrb	r3, [r3, #7]	@ zero_extendqisi2
 2288 0cee 022B     		cmp	r3, #2
 2289 0cf0 14BF     		ite	ne
 2290 0cf2 0023     		movne	r3, #0
 2291 0cf4 0123     		moveq	r3, #1
 2292 0cf6 DAB2     		uxtb	r2, r3
 2293 0cf8 FB68     		ldr	r3, [r7, #12]
 2294 0cfa 62F35143 		bfi	r3, r2, #17, #1
 2295 0cfe FB60     		str	r3, [r7, #12]
 950:../Libraries/STM32_USB_OTG_Driver/src/usb_core.c ****   hcchar.b.eptype  = pdev->host.hc[hc_num].ep_type;
 2296              		.loc 1 950 0
 2297 0d00 FB78     		ldrb	r3, [r7, #3]	@ zero_extendqisi2
 2298 0d02 7A68     		ldr	r2, [r7, #4]
 2299 0d04 4FEA4313 		lsl	r3, r3, #5
 2300 0d08 D318     		adds	r3, r2, r3
 2301 0d0a 03F56A73 		add	r3, r3, #936
 2302 0d0e 5B7A     		ldrb	r3, [r3, #9]	@ zero_extendqisi2
 2303 0d10 03F00303 		and	r3, r3, #3
 2304 0d14 DAB2     		uxtb	r2, r3
 2305 0d16 FB68     		ldr	r3, [r7, #12]
 2306 0d18 62F39343 		bfi	r3, r2, #18, #2
 2307 0d1c FB60     		str	r3, [r7, #12]
 951:../Libraries/STM32_USB_OTG_Driver/src/usb_core.c ****   hcchar.b.mps     = pdev->host.hc[hc_num].max_packet;
 2308              		.loc 1 951 0
 2309 0d1e FB78     		ldrb	r3, [r7, #3]	@ zero_extendqisi2
 2310 0d20 7A68     		ldr	r2, [r7, #4]
 2311 0d22 4FEA4313 		lsl	r3, r3, #5
 2312 0d26 D318     		adds	r3, r2, r3
 2313 0d28 03F56A73 		add	r3, r3, #936
 2314 0d2c 5B89     		ldrh	r3, [r3, #10]
 2315 0d2e 4FEA4353 		lsl	r3, r3, #21
 2316 0d32 4FEA5353 		lsr	r3, r3, #21
 2317 0d36 9AB2     		uxth	r2, r3
 2318 0d38 FB68     		ldr	r3, [r7, #12]
 2319 0d3a 62F30A03 		bfi	r3, r2, #0, #11
 2320 0d3e FB60     		str	r3, [r7, #12]
 952:../Libraries/STM32_USB_OTG_Driver/src/usb_core.c ****   if (pdev->host.hc[hc_num].ep_type == HCCHAR_INTR)
 2321              		.loc 1 952 0
 2322 0d40 FB78     		ldrb	r3, [r7, #3]	@ zero_extendqisi2
 2323 0d42 7A68     		ldr	r2, [r7, #4]
 2324 0d44 4FEA4313 		lsl	r3, r3, #5
 2325 0d48 D318     		adds	r3, r2, r3
 2326 0d4a 03F56A73 		add	r3, r3, #936
 2327 0d4e 5B7A     		ldrb	r3, [r3, #9]	@ zero_extendqisi2
 2328 0d50 032B     		cmp	r3, #3
 2329 0d52 03D1     		bne	.L109
 953:../Libraries/STM32_USB_OTG_Driver/src/usb_core.c ****   {
 954:../Libraries/STM32_USB_OTG_Driver/src/usb_core.c ****     hcchar.b.oddfrm  = 1;
 2330              		.loc 1 954 0
 2331 0d54 FB68     		ldr	r3, [r7, #12]
 2332 0d56 43F00053 		orr	r3, r3, #536870912
 2333 0d5a FB60     		str	r3, [r7, #12]
 2334              	.L109:
 955:../Libraries/STM32_USB_OTG_Driver/src/usb_core.c ****   }
 956:../Libraries/STM32_USB_OTG_Driver/src/usb_core.c ****   USB_OTG_WRITE_REG32(&pdev->regs.HC_REGS[hc_num]->HCCHAR, hcchar.d32);
 2335              		.loc 1 956 0
 2336 0d5c FB78     		ldrb	r3, [r7, #3]	@ zero_extendqisi2
 2337 0d5e 7A68     		ldr	r2, [r7, #4]
 2338 0d60 03F12203 		add	r3, r3, #34
 2339 0d64 4FEA8303 		lsl	r3, r3, #2
 2340 0d68 D318     		adds	r3, r2, r3
 2341 0d6a 9B68     		ldr	r3, [r3, #8]
 2342 0d6c FA68     		ldr	r2, [r7, #12]
 2343 0d6e 1A60     		str	r2, [r3, #0]
 957:../Libraries/STM32_USB_OTG_Driver/src/usb_core.c ****   return status;
 2344              		.loc 1 957 0
 2345 0d70 FB7F     		ldrb	r3, [r7, #31]	@ zero_extendqisi2
 958:../Libraries/STM32_USB_OTG_Driver/src/usb_core.c **** }
 2346              		.loc 1 958 0
 2347 0d72 1846     		mov	r0, r3
 2348 0d74 07F12407 		add	r7, r7, #36
 2349 0d78 BD46     		mov	sp, r7
 2350 0d7a 80BC     		pop	{r7}
 2351 0d7c 7047     		bx	lr
 2352              		.cfi_endproc
 2353              	.LFE134:
 2355 0d7e 00BF     		.align	2
 2356              		.global	USB_OTG_HC_StartXfer
 2357              		.thumb
 2358              		.thumb_func
 2360              	USB_OTG_HC_StartXfer:
 2361              	.LFB135:
 959:../Libraries/STM32_USB_OTG_Driver/src/usb_core.c **** 
 960:../Libraries/STM32_USB_OTG_Driver/src/usb_core.c **** 
 961:../Libraries/STM32_USB_OTG_Driver/src/usb_core.c **** /**
 962:../Libraries/STM32_USB_OTG_Driver/src/usb_core.c **** * @brief  USB_OTG_HC_StartXfer : Start transfer
 963:../Libraries/STM32_USB_OTG_Driver/src/usb_core.c **** * @param  pdev : Selected device
 964:../Libraries/STM32_USB_OTG_Driver/src/usb_core.c **** * @param  hc_num : channel number
 965:../Libraries/STM32_USB_OTG_Driver/src/usb_core.c **** * @retval USB_OTG_STS : status
 966:../Libraries/STM32_USB_OTG_Driver/src/usb_core.c **** */
 967:../Libraries/STM32_USB_OTG_Driver/src/usb_core.c **** USB_OTG_STS USB_OTG_HC_StartXfer(USB_OTG_CORE_HANDLE *pdev , uint8_t hc_num)
 968:../Libraries/STM32_USB_OTG_Driver/src/usb_core.c **** {
 2362              		.loc 1 968 0
 2363              		.cfi_startproc
 2364              		@ args = 0, pretend = 0, frame = 48
 2365              		@ frame_needed = 1, uses_anonymous_args = 0
 2366 0d80 80B5     		push	{r7, lr}
 2367              	.LCFI75:
 2368              		.cfi_def_cfa_offset 8
 2369              		.cfi_offset 7, -8
 2370              		.cfi_offset 14, -4
 2371 0d82 8CB0     		sub	sp, sp, #48
 2372              	.LCFI76:
 2373              		.cfi_def_cfa_offset 56
 2374 0d84 00AF     		add	r7, sp, #0
 2375              	.LCFI77:
 2376              		.cfi_def_cfa_register 7
 2377 0d86 7860     		str	r0, [r7, #4]
 2378 0d88 0B46     		mov	r3, r1
 2379 0d8a FB70     		strb	r3, [r7, #3]
 969:../Libraries/STM32_USB_OTG_Driver/src/usb_core.c ****   USB_OTG_STS status = USB_OTG_OK;
 2380              		.loc 1 969 0
 2381 0d8c 4FF00003 		mov	r3, #0
 2382 0d90 87F82D30 		strb	r3, [r7, #45]
 970:../Libraries/STM32_USB_OTG_Driver/src/usb_core.c ****   USB_OTG_HCCHAR_TypeDef   hcchar;
 971:../Libraries/STM32_USB_OTG_Driver/src/usb_core.c ****   USB_OTG_HCTSIZn_TypeDef  hctsiz;
 972:../Libraries/STM32_USB_OTG_Driver/src/usb_core.c ****   USB_OTG_HNPTXSTS_TypeDef hnptxsts; 
 973:../Libraries/STM32_USB_OTG_Driver/src/usb_core.c ****   USB_OTG_HPTXSTS_TypeDef  hptxsts; 
 974:../Libraries/STM32_USB_OTG_Driver/src/usb_core.c ****   USB_OTG_GINTMSK_TypeDef  intmsk;
 975:../Libraries/STM32_USB_OTG_Driver/src/usb_core.c ****   uint16_t                 len_words = 0;   
 2383              		.loc 1 975 0
 2384 0d94 4FF00003 		mov	r3, #0
 2385 0d98 7B85     		strh	r3, [r7, #42]	@ movhi
 976:../Libraries/STM32_USB_OTG_Driver/src/usb_core.c ****   
 977:../Libraries/STM32_USB_OTG_Driver/src/usb_core.c ****   uint16_t num_packets;
 978:../Libraries/STM32_USB_OTG_Driver/src/usb_core.c ****   uint16_t max_hc_pkt_count;
 979:../Libraries/STM32_USB_OTG_Driver/src/usb_core.c ****   
 980:../Libraries/STM32_USB_OTG_Driver/src/usb_core.c ****   max_hc_pkt_count = 256;
 2386              		.loc 1 980 0
 2387 0d9a 4FF48073 		mov	r3, #256
 2388 0d9e 3B85     		strh	r3, [r7, #40]	@ movhi
 981:../Libraries/STM32_USB_OTG_Driver/src/usb_core.c ****   hctsiz.d32 = 0;
 2389              		.loc 1 981 0
 2390 0da0 4FF00003 		mov	r3, #0
 2391 0da4 3B62     		str	r3, [r7, #32]
 982:../Libraries/STM32_USB_OTG_Driver/src/usb_core.c ****   hcchar.d32 = 0;
 2392              		.loc 1 982 0
 2393 0da6 4FF00003 		mov	r3, #0
 2394 0daa 7B62     		str	r3, [r7, #36]
 983:../Libraries/STM32_USB_OTG_Driver/src/usb_core.c ****   intmsk.d32 = 0;
 2395              		.loc 1 983 0
 2396 0dac 4FF00003 		mov	r3, #0
 2397 0db0 BB60     		str	r3, [r7, #8]
 984:../Libraries/STM32_USB_OTG_Driver/src/usb_core.c ****   
 985:../Libraries/STM32_USB_OTG_Driver/src/usb_core.c ****   /* Compute the expected number of packets associated to the transfer */
 986:../Libraries/STM32_USB_OTG_Driver/src/usb_core.c ****   if (pdev->host.hc[hc_num].xfer_len > 0)
 2398              		.loc 1 986 0
 2399 0db2 FB78     		ldrb	r3, [r7, #3]	@ zero_extendqisi2
 2400 0db4 7A68     		ldr	r2, [r7, #4]
 2401 0db6 4FEA4313 		lsl	r3, r3, #5
 2402 0dba D318     		adds	r3, r2, r3
 2403 0dbc 03F56F73 		add	r3, r3, #956
 2404 0dc0 1B68     		ldr	r3, [r3, #0]
 2405 0dc2 002B     		cmp	r3, #0
 2406 0dc4 37D0     		beq	.L115
 987:../Libraries/STM32_USB_OTG_Driver/src/usb_core.c ****   {
 988:../Libraries/STM32_USB_OTG_Driver/src/usb_core.c ****     num_packets = (pdev->host.hc[hc_num].xfer_len + \
 2407              		.loc 1 988 0
 2408 0dc6 FB78     		ldrb	r3, [r7, #3]	@ zero_extendqisi2
 2409 0dc8 7A68     		ldr	r2, [r7, #4]
 2410 0dca 4FEA4313 		lsl	r3, r3, #5
 2411 0dce D318     		adds	r3, r2, r3
 2412 0dd0 03F56F73 		add	r3, r3, #956
 2413 0dd4 1A68     		ldr	r2, [r3, #0]
 989:../Libraries/STM32_USB_OTG_Driver/src/usb_core.c ****       pdev->host.hc[hc_num].max_packet - 1) / pdev->host.hc[hc_num].max_packet;
 2414              		.loc 1 989 0
 2415 0dd6 FB78     		ldrb	r3, [r7, #3]	@ zero_extendqisi2
 2416 0dd8 7968     		ldr	r1, [r7, #4]
 2417 0dda 4FEA4313 		lsl	r3, r3, #5
 2418 0dde CB18     		adds	r3, r1, r3
 2419 0de0 03F56A73 		add	r3, r3, #936
 2420 0de4 5B89     		ldrh	r3, [r3, #10]
 988:../Libraries/STM32_USB_OTG_Driver/src/usb_core.c ****     num_packets = (pdev->host.hc[hc_num].xfer_len + \
 2421              		.loc 1 988 0
 2422 0de6 D318     		adds	r3, r2, r3
 2423              		.loc 1 989 0
 2424 0de8 03F1FF32 		add	r2, r3, #-1
 2425 0dec FB78     		ldrb	r3, [r7, #3]	@ zero_extendqisi2
 2426 0dee 7968     		ldr	r1, [r7, #4]
 2427 0df0 4FEA4313 		lsl	r3, r3, #5
 2428 0df4 CB18     		adds	r3, r1, r3
 2429 0df6 03F56A73 		add	r3, r3, #936
 2430 0dfa 5B89     		ldrh	r3, [r3, #10]
 2431 0dfc B2FBF3F3 		udiv	r3, r2, r3
 988:../Libraries/STM32_USB_OTG_Driver/src/usb_core.c ****     num_packets = (pdev->host.hc[hc_num].xfer_len + \
 2432              		.loc 1 988 0
 2433 0e00 FB85     		strh	r3, [r7, #46]	@ movhi
 990:../Libraries/STM32_USB_OTG_Driver/src/usb_core.c ****     
 991:../Libraries/STM32_USB_OTG_Driver/src/usb_core.c ****     if (num_packets > max_hc_pkt_count)
 2434              		.loc 1 991 0
 2435 0e02 FA8D     		ldrh	r2, [r7, #46]
 2436 0e04 3B8D     		ldrh	r3, [r7, #40]
 2437 0e06 9A42     		cmp	r2, r3
 2438 0e08 18D9     		bls	.L116
 992:../Libraries/STM32_USB_OTG_Driver/src/usb_core.c ****     {
 993:../Libraries/STM32_USB_OTG_Driver/src/usb_core.c ****       num_packets = max_hc_pkt_count;
 2439              		.loc 1 993 0
 2440 0e0a 3B8D     		ldrh	r3, [r7, #40]	@ movhi
 2441 0e0c FB85     		strh	r3, [r7, #46]	@ movhi
 994:../Libraries/STM32_USB_OTG_Driver/src/usb_core.c ****       pdev->host.hc[hc_num].xfer_len = num_packets * \
 2442              		.loc 1 994 0
 2443 0e0e FB78     		ldrb	r3, [r7, #3]	@ zero_extendqisi2
 2444 0e10 FA8D     		ldrh	r2, [r7, #46]
 995:../Libraries/STM32_USB_OTG_Driver/src/usb_core.c ****         pdev->host.hc[hc_num].max_packet;
 2445              		.loc 1 995 0
 2446 0e12 F978     		ldrb	r1, [r7, #3]	@ zero_extendqisi2
 2447 0e14 7868     		ldr	r0, [r7, #4]
 2448 0e16 4FEA4111 		lsl	r1, r1, #5
 2449 0e1a 4118     		adds	r1, r0, r1
 2450 0e1c 01F56A71 		add	r1, r1, #936
 2451 0e20 4989     		ldrh	r1, [r1, #10]
 994:../Libraries/STM32_USB_OTG_Driver/src/usb_core.c ****       pdev->host.hc[hc_num].xfer_len = num_packets * \
 2452              		.loc 1 994 0
 2453 0e22 01FB02F2 		mul	r2, r1, r2
 2454 0e26 7968     		ldr	r1, [r7, #4]
 2455 0e28 4FEA4313 		lsl	r3, r3, #5
 2456 0e2c CB18     		adds	r3, r1, r3
 2457 0e2e 03F56F73 		add	r3, r3, #956
 2458 0e32 1A60     		str	r2, [r3, #0]
 2459 0e34 02E0     		b	.L116
 2460              	.L115:
 996:../Libraries/STM32_USB_OTG_Driver/src/usb_core.c ****     }
 997:../Libraries/STM32_USB_OTG_Driver/src/usb_core.c ****   }
 998:../Libraries/STM32_USB_OTG_Driver/src/usb_core.c ****   else
 999:../Libraries/STM32_USB_OTG_Driver/src/usb_core.c ****   {
1000:../Libraries/STM32_USB_OTG_Driver/src/usb_core.c ****     num_packets = 1;
 2461              		.loc 1 1000 0
 2462 0e36 4FF00103 		mov	r3, #1
 2463 0e3a FB85     		strh	r3, [r7, #46]	@ movhi
 2464              	.L116:
1001:../Libraries/STM32_USB_OTG_Driver/src/usb_core.c ****   }
1002:../Libraries/STM32_USB_OTG_Driver/src/usb_core.c ****   if (pdev->host.hc[hc_num].ep_is_in)
 2465              		.loc 1 1002 0
 2466 0e3c FB78     		ldrb	r3, [r7, #3]	@ zero_extendqisi2
 2467 0e3e 7A68     		ldr	r2, [r7, #4]
 2468 0e40 4FEA4313 		lsl	r3, r3, #5
 2469 0e44 D318     		adds	r3, r2, r3
 2470 0e46 03F56A73 		add	r3, r3, #936
 2471 0e4a 9B79     		ldrb	r3, [r3, #6]	@ zero_extendqisi2
 2472 0e4c 002B     		cmp	r3, #0
 2473 0e4e 12D0     		beq	.L117
1003:../Libraries/STM32_USB_OTG_Driver/src/usb_core.c ****   {
1004:../Libraries/STM32_USB_OTG_Driver/src/usb_core.c ****     pdev->host.hc[hc_num].xfer_len = num_packets * \
 2474              		.loc 1 1004 0
 2475 0e50 FB78     		ldrb	r3, [r7, #3]	@ zero_extendqisi2
 2476 0e52 FA8D     		ldrh	r2, [r7, #46]
1005:../Libraries/STM32_USB_OTG_Driver/src/usb_core.c ****       pdev->host.hc[hc_num].max_packet;
 2477              		.loc 1 1005 0
 2478 0e54 F978     		ldrb	r1, [r7, #3]	@ zero_extendqisi2
 2479 0e56 7868     		ldr	r0, [r7, #4]
 2480 0e58 4FEA4111 		lsl	r1, r1, #5
 2481 0e5c 4118     		adds	r1, r0, r1
 2482 0e5e 01F56A71 		add	r1, r1, #936
 2483 0e62 4989     		ldrh	r1, [r1, #10]
1004:../Libraries/STM32_USB_OTG_Driver/src/usb_core.c ****     pdev->host.hc[hc_num].xfer_len = num_packets * \
 2484              		.loc 1 1004 0
 2485 0e64 01FB02F2 		mul	r2, r1, r2
 2486 0e68 7968     		ldr	r1, [r7, #4]
 2487 0e6a 4FEA4313 		lsl	r3, r3, #5
 2488 0e6e CB18     		adds	r3, r1, r3
 2489 0e70 03F56F73 		add	r3, r3, #956
 2490 0e74 1A60     		str	r2, [r3, #0]
 2491              	.L117:
1006:../Libraries/STM32_USB_OTG_Driver/src/usb_core.c ****   }
1007:../Libraries/STM32_USB_OTG_Driver/src/usb_core.c ****   /* Initialize the HCTSIZn register */
1008:../Libraries/STM32_USB_OTG_Driver/src/usb_core.c ****   hctsiz.b.xfersize = pdev->host.hc[hc_num].xfer_len;
 2492              		.loc 1 1008 0
 2493 0e76 FB78     		ldrb	r3, [r7, #3]	@ zero_extendqisi2
 2494 0e78 7A68     		ldr	r2, [r7, #4]
 2495 0e7a 4FEA4313 		lsl	r3, r3, #5
 2496 0e7e D318     		adds	r3, r2, r3
 2497 0e80 03F56F73 		add	r3, r3, #956
 2498 0e84 1B68     		ldr	r3, [r3, #0]
 2499 0e86 23F07F42 		bic	r2, r3, #-16777216
 2500 0e8a 22F47802 		bic	r2, r2, #16252928
 2501 0e8e 3B6A     		ldr	r3, [r7, #32]
 2502 0e90 62F31203 		bfi	r3, r2, #0, #19
 2503 0e94 3B62     		str	r3, [r7, #32]
1009:../Libraries/STM32_USB_OTG_Driver/src/usb_core.c ****   hctsiz.b.pktcnt = num_packets;
 2504              		.loc 1 1009 0
 2505 0e96 FB8D     		ldrh	r3, [r7, #46]	@ movhi
 2506 0e98 4FEA8353 		lsl	r3, r3, #22
 2507 0e9c 4FEA9353 		lsr	r3, r3, #22
 2508 0ea0 9AB2     		uxth	r2, r3
 2509 0ea2 3B6A     		ldr	r3, [r7, #32]
 2510 0ea4 62F3DC43 		bfi	r3, r2, #19, #10
 2511 0ea8 3B62     		str	r3, [r7, #32]
1010:../Libraries/STM32_USB_OTG_Driver/src/usb_core.c ****   hctsiz.b.pid = pdev->host.hc[hc_num].data_pid;
 2512              		.loc 1 1010 0
 2513 0eaa FB78     		ldrb	r3, [r7, #3]	@ zero_extendqisi2
 2514 0eac 7A68     		ldr	r2, [r7, #4]
 2515 0eae 03F11503 		add	r3, r3, #21
 2516 0eb2 4FEA4313 		lsl	r3, r3, #5
 2517 0eb6 D318     		adds	r3, r2, r3
 2518 0eb8 03F58873 		add	r3, r3, #272
 2519 0ebc 1B79     		ldrb	r3, [r3, #4]	@ zero_extendqisi2
 2520 0ebe 03F00303 		and	r3, r3, #3
 2521 0ec2 DAB2     		uxtb	r2, r3
 2522 0ec4 3B6A     		ldr	r3, [r7, #32]
 2523 0ec6 62F35E73 		bfi	r3, r2, #29, #2
 2524 0eca 3B62     		str	r3, [r7, #32]
1011:../Libraries/STM32_USB_OTG_Driver/src/usb_core.c ****   USB_OTG_WRITE_REG32(&pdev->regs.HC_REGS[hc_num]->HCTSIZ, hctsiz.d32);
 2525              		.loc 1 1011 0
 2526 0ecc FB78     		ldrb	r3, [r7, #3]	@ zero_extendqisi2
 2527 0ece 7A68     		ldr	r2, [r7, #4]
 2528 0ed0 03F12203 		add	r3, r3, #34
 2529 0ed4 4FEA8303 		lsl	r3, r3, #2
 2530 0ed8 D318     		adds	r3, r2, r3
 2531 0eda 9B68     		ldr	r3, [r3, #8]
 2532 0edc 3A6A     		ldr	r2, [r7, #32]
 2533 0ede 1A61     		str	r2, [r3, #16]
1012:../Libraries/STM32_USB_OTG_Driver/src/usb_core.c ****   
1013:../Libraries/STM32_USB_OTG_Driver/src/usb_core.c ****   if (pdev->cfg.dma_enable == 1)
 2534              		.loc 1 1013 0
 2535 0ee0 7B68     		ldr	r3, [r7, #4]
 2536 0ee2 DB78     		ldrb	r3, [r3, #3]	@ zero_extendqisi2
 2537 0ee4 012B     		cmp	r3, #1
 2538 0ee6 12D1     		bne	.L118
1014:../Libraries/STM32_USB_OTG_Driver/src/usb_core.c ****   {
1015:../Libraries/STM32_USB_OTG_Driver/src/usb_core.c ****     USB_OTG_WRITE_REG32(&pdev->regs.HC_REGS[hc_num]->HCDMA, (unsigned int)pdev->host.hc[hc_num].xfe
 2539              		.loc 1 1015 0
 2540 0ee8 FB78     		ldrb	r3, [r7, #3]	@ zero_extendqisi2
 2541 0eea 7A68     		ldr	r2, [r7, #4]
 2542 0eec 03F12203 		add	r3, r3, #34
 2543 0ef0 4FEA8303 		lsl	r3, r3, #2
 2544 0ef4 D318     		adds	r3, r2, r3
 2545 0ef6 9B68     		ldr	r3, [r3, #8]
 2546 0ef8 FA78     		ldrb	r2, [r7, #3]	@ zero_extendqisi2
 2547 0efa 7968     		ldr	r1, [r7, #4]
 2548 0efc 02F11502 		add	r2, r2, #21
 2549 0f00 4FEA4212 		lsl	r2, r2, #5
 2550 0f04 8A18     		adds	r2, r1, r2
 2551 0f06 02F58C72 		add	r2, r2, #280
 2552 0f0a 1268     		ldr	r2, [r2, #0]
 2553 0f0c 5A61     		str	r2, [r3, #20]
 2554              	.L118:
1016:../Libraries/STM32_USB_OTG_Driver/src/usb_core.c ****   }
1017:../Libraries/STM32_USB_OTG_Driver/src/usb_core.c ****   
1018:../Libraries/STM32_USB_OTG_Driver/src/usb_core.c ****   
1019:../Libraries/STM32_USB_OTG_Driver/src/usb_core.c ****   hcchar.d32 = USB_OTG_READ_REG32(&pdev->regs.HC_REGS[hc_num]->HCCHAR);
 2555              		.loc 1 1019 0
 2556 0f0e FB78     		ldrb	r3, [r7, #3]	@ zero_extendqisi2
 2557 0f10 7A68     		ldr	r2, [r7, #4]
 2558 0f12 03F12203 		add	r3, r3, #34
 2559 0f16 4FEA8303 		lsl	r3, r3, #2
 2560 0f1a D318     		adds	r3, r2, r3
 2561 0f1c 9B68     		ldr	r3, [r3, #8]
 2562 0f1e 1B68     		ldr	r3, [r3, #0]
 2563 0f20 7B62     		str	r3, [r7, #36]
1020:../Libraries/STM32_USB_OTG_Driver/src/usb_core.c ****   hcchar.b.oddfrm = USB_OTG_IsEvenFrame(pdev);
 2564              		.loc 1 1020 0
 2565 0f22 7868     		ldr	r0, [r7, #4]
 2566 0f24 FFF7FEFF 		bl	USB_OTG_IsEvenFrame
 2567 0f28 0346     		mov	r3, r0
 2568 0f2a 03F00103 		and	r3, r3, #1
 2569 0f2e DAB2     		uxtb	r2, r3
 2570 0f30 7B6A     		ldr	r3, [r7, #36]
 2571 0f32 62F35D73 		bfi	r3, r2, #29, #1
 2572 0f36 7B62     		str	r3, [r7, #36]
1021:../Libraries/STM32_USB_OTG_Driver/src/usb_core.c ****   
1022:../Libraries/STM32_USB_OTG_Driver/src/usb_core.c ****   /* Set host channel enable */
1023:../Libraries/STM32_USB_OTG_Driver/src/usb_core.c ****   hcchar.b.chen = 1;
 2573              		.loc 1 1023 0
 2574 0f38 7B6A     		ldr	r3, [r7, #36]
 2575 0f3a 43F00043 		orr	r3, r3, #-2147483648
 2576 0f3e 7B62     		str	r3, [r7, #36]
1024:../Libraries/STM32_USB_OTG_Driver/src/usb_core.c ****   hcchar.b.chdis = 0;
 2577              		.loc 1 1024 0
 2578 0f40 7B6A     		ldr	r3, [r7, #36]
 2579 0f42 6FF39E73 		bfc	r3, #30, #1
 2580 0f46 7B62     		str	r3, [r7, #36]
1025:../Libraries/STM32_USB_OTG_Driver/src/usb_core.c ****   USB_OTG_WRITE_REG32(&pdev->regs.HC_REGS[hc_num]->HCCHAR, hcchar.d32);
 2581              		.loc 1 1025 0
 2582 0f48 FB78     		ldrb	r3, [r7, #3]	@ zero_extendqisi2
 2583 0f4a 7A68     		ldr	r2, [r7, #4]
 2584 0f4c 03F12203 		add	r3, r3, #34
 2585 0f50 4FEA8303 		lsl	r3, r3, #2
 2586 0f54 D318     		adds	r3, r2, r3
 2587 0f56 9B68     		ldr	r3, [r3, #8]
 2588 0f58 7A6A     		ldr	r2, [r7, #36]
 2589 0f5a 1A60     		str	r2, [r3, #0]
1026:../Libraries/STM32_USB_OTG_Driver/src/usb_core.c ****   
1027:../Libraries/STM32_USB_OTG_Driver/src/usb_core.c ****   if (pdev->cfg.dma_enable == 0) /* Slave mode */
 2590              		.loc 1 1027 0
 2591 0f5c 7B68     		ldr	r3, [r7, #4]
 2592 0f5e DB78     		ldrb	r3, [r3, #3]	@ zero_extendqisi2
 2593 0f60 002B     		cmp	r3, #0
 2594 0f62 40F08980 		bne	.L119
1028:../Libraries/STM32_USB_OTG_Driver/src/usb_core.c ****   {  
1029:../Libraries/STM32_USB_OTG_Driver/src/usb_core.c ****     if((pdev->host.hc[hc_num].ep_is_in == 0) && 
 2595              		.loc 1 1029 0
 2596 0f66 FB78     		ldrb	r3, [r7, #3]	@ zero_extendqisi2
 2597 0f68 7A68     		ldr	r2, [r7, #4]
 2598 0f6a 4FEA4313 		lsl	r3, r3, #5
 2599 0f6e D318     		adds	r3, r2, r3
 2600 0f70 03F56A73 		add	r3, r3, #936
 2601 0f74 9B79     		ldrb	r3, [r3, #6]	@ zero_extendqisi2
 2602 0f76 002B     		cmp	r3, #0
 2603 0f78 7ED1     		bne	.L119
1030:../Libraries/STM32_USB_OTG_Driver/src/usb_core.c ****        (pdev->host.hc[hc_num].xfer_len > 0))
 2604              		.loc 1 1030 0 discriminator 1
 2605 0f7a FB78     		ldrb	r3, [r7, #3]	@ zero_extendqisi2
 2606 0f7c 7A68     		ldr	r2, [r7, #4]
 2607 0f7e 4FEA4313 		lsl	r3, r3, #5
 2608 0f82 D318     		adds	r3, r2, r3
 2609 0f84 03F56F73 		add	r3, r3, #956
 2610 0f88 1B68     		ldr	r3, [r3, #0]
1029:../Libraries/STM32_USB_OTG_Driver/src/usb_core.c ****     if((pdev->host.hc[hc_num].ep_is_in == 0) && 
 2611              		.loc 1 1029 0 discriminator 1
 2612 0f8a 002B     		cmp	r3, #0
 2613 0f8c 74D0     		beq	.L119
1031:../Libraries/STM32_USB_OTG_Driver/src/usb_core.c ****     {
1032:../Libraries/STM32_USB_OTG_Driver/src/usb_core.c ****       switch(pdev->host.hc[hc_num].ep_type) 
 2614              		.loc 1 1032 0
 2615 0f8e FB78     		ldrb	r3, [r7, #3]	@ zero_extendqisi2
 2616 0f90 7A68     		ldr	r2, [r7, #4]
 2617 0f92 4FEA4313 		lsl	r3, r3, #5
 2618 0f96 D318     		adds	r3, r2, r3
 2619 0f98 03F56A73 		add	r3, r3, #936
 2620 0f9c 5B7A     		ldrb	r3, [r3, #9]	@ zero_extendqisi2
 2621 0f9e 032B     		cmp	r3, #3
 2622 0fa0 4ED8     		bhi	.L128
 2623 0fa2 01A2     		adr	r2, .L123
 2624 0fa4 52F823F0 		ldr	pc, [r2, r3, lsl #2]
 2625              		.align	2
 2626              	.L123:
 2627 0fa8 B90F0000 		.word	.L121+1
 2628 0fac FD0F0000 		.word	.L122+1
 2629 0fb0 B90F0000 		.word	.L121+1
 2630 0fb4 FD0F0000 		.word	.L122+1
 2631              	.L121:
1033:../Libraries/STM32_USB_OTG_Driver/src/usb_core.c ****       {
1034:../Libraries/STM32_USB_OTG_Driver/src/usb_core.c ****         /* Non periodic transfer */
1035:../Libraries/STM32_USB_OTG_Driver/src/usb_core.c ****       case EP_TYPE_CTRL:
1036:../Libraries/STM32_USB_OTG_Driver/src/usb_core.c ****       case EP_TYPE_BULK:
1037:../Libraries/STM32_USB_OTG_Driver/src/usb_core.c ****         
1038:../Libraries/STM32_USB_OTG_Driver/src/usb_core.c ****         hnptxsts.d32 = USB_OTG_READ_REG32(&pdev->regs.GREGS->HNPTXSTS);
 2632              		.loc 1 1038 0
 2633 0fb8 7B68     		ldr	r3, [r7, #4]
 2634 0fba DB68     		ldr	r3, [r3, #12]
 2635 0fbc DB6A     		ldr	r3, [r3, #44]
 2636 0fbe 7B61     		str	r3, [r7, #20]
1039:../Libraries/STM32_USB_OTG_Driver/src/usb_core.c ****         len_words = (pdev->host.hc[hc_num].xfer_len + 3) / 4;
 2637              		.loc 1 1039 0
 2638 0fc0 FB78     		ldrb	r3, [r7, #3]	@ zero_extendqisi2
 2639 0fc2 7A68     		ldr	r2, [r7, #4]
 2640 0fc4 4FEA4313 		lsl	r3, r3, #5
 2641 0fc8 D318     		adds	r3, r2, r3
 2642 0fca 03F56F73 		add	r3, r3, #956
 2643 0fce 1B68     		ldr	r3, [r3, #0]
 2644 0fd0 03F10303 		add	r3, r3, #3
 2645 0fd4 4FEA9303 		lsr	r3, r3, #2
 2646 0fd8 7B85     		strh	r3, [r7, #42]	@ movhi
1040:../Libraries/STM32_USB_OTG_Driver/src/usb_core.c ****         
1041:../Libraries/STM32_USB_OTG_Driver/src/usb_core.c ****         /* check if there is enough space in FIFO space */
1042:../Libraries/STM32_USB_OTG_Driver/src/usb_core.c ****         if(len_words > hnptxsts.b.nptxfspcavail)
 2647              		.loc 1 1042 0
 2648 0fda BB8A     		ldrh	r3, [r7, #20]
 2649 0fdc 7A8D     		ldrh	r2, [r7, #42]
 2650 0fde 9A42     		cmp	r2, r3
 2651 0fe0 30D9     		bls	.L129
1043:../Libraries/STM32_USB_OTG_Driver/src/usb_core.c ****         {
1044:../Libraries/STM32_USB_OTG_Driver/src/usb_core.c ****           /* need to process data in nptxfempty interrupt */
1045:../Libraries/STM32_USB_OTG_Driver/src/usb_core.c ****           intmsk.b.nptxfempty = 1;
 2652              		.loc 1 1045 0
 2653 0fe2 BB68     		ldr	r3, [r7, #8]
 2654 0fe4 43F02003 		orr	r3, r3, #32
 2655 0fe8 BB60     		str	r3, [r7, #8]
1046:../Libraries/STM32_USB_OTG_Driver/src/usb_core.c ****           USB_OTG_MODIFY_REG32( &pdev->regs.GREGS->GINTMSK, 0, intmsk.d32);  
 2656              		.loc 1 1046 0
 2657 0fea 7B68     		ldr	r3, [r7, #4]
 2658 0fec DB68     		ldr	r3, [r3, #12]
 2659 0fee 7A68     		ldr	r2, [r7, #4]
 2660 0ff0 D268     		ldr	r2, [r2, #12]
 2661 0ff2 9169     		ldr	r1, [r2, #24]
 2662 0ff4 BA68     		ldr	r2, [r7, #8]
 2663 0ff6 0A43     		orrs	r2, r2, r1
 2664 0ff8 9A61     		str	r2, [r3, #24]
1047:../Libraries/STM32_USB_OTG_Driver/src/usb_core.c ****         }
1048:../Libraries/STM32_USB_OTG_Driver/src/usb_core.c ****         
1049:../Libraries/STM32_USB_OTG_Driver/src/usb_core.c ****         break;
 2665              		.loc 1 1049 0
 2666 0ffa 23E0     		b	.L129
 2667              	.L122:
1050:../Libraries/STM32_USB_OTG_Driver/src/usb_core.c ****         /* Periodic transfer */
1051:../Libraries/STM32_USB_OTG_Driver/src/usb_core.c ****       case EP_TYPE_INTR:
1052:../Libraries/STM32_USB_OTG_Driver/src/usb_core.c ****       case EP_TYPE_ISOC:
1053:../Libraries/STM32_USB_OTG_Driver/src/usb_core.c ****         hptxsts.d32 = USB_OTG_READ_REG32(&pdev->regs.HREGS->HPTXSTS);
 2668              		.loc 1 1053 0
 2669 0ffc 7B68     		ldr	r3, [r7, #4]
 2670 0ffe 5B69     		ldr	r3, [r3, #20]
 2671 1000 1B69     		ldr	r3, [r3, #16]
 2672 1002 FB60     		str	r3, [r7, #12]
1054:../Libraries/STM32_USB_OTG_Driver/src/usb_core.c ****         len_words = (pdev->host.hc[hc_num].xfer_len + 3) / 4;
 2673              		.loc 1 1054 0
 2674 1004 FB78     		ldrb	r3, [r7, #3]	@ zero_extendqisi2
 2675 1006 7A68     		ldr	r2, [r7, #4]
 2676 1008 4FEA4313 		lsl	r3, r3, #5
 2677 100c D318     		adds	r3, r2, r3
 2678 100e 03F56F73 		add	r3, r3, #956
 2679 1012 1B68     		ldr	r3, [r3, #0]
 2680 1014 03F10303 		add	r3, r3, #3
 2681 1018 4FEA9303 		lsr	r3, r3, #2
 2682 101c 7B85     		strh	r3, [r7, #42]	@ movhi
1055:../Libraries/STM32_USB_OTG_Driver/src/usb_core.c ****         /* check if there is enough space in FIFO space */
1056:../Libraries/STM32_USB_OTG_Driver/src/usb_core.c ****         if(len_words > hptxsts.b.ptxfspcavail) /* split the transfer */
 2683              		.loc 1 1056 0
 2684 101e BB89     		ldrh	r3, [r7, #12]
 2685 1020 7A8D     		ldrh	r2, [r7, #42]
 2686 1022 9A42     		cmp	r2, r3
 2687 1024 10D9     		bls	.L130
1057:../Libraries/STM32_USB_OTG_Driver/src/usb_core.c ****         {
1058:../Libraries/STM32_USB_OTG_Driver/src/usb_core.c ****           /* need to process data in ptxfempty interrupt */
1059:../Libraries/STM32_USB_OTG_Driver/src/usb_core.c ****           intmsk.b.ptxfempty = 1;
 2688              		.loc 1 1059 0
 2689 1026 BB68     		ldr	r3, [r7, #8]
 2690 1028 43F08063 		orr	r3, r3, #67108864
 2691 102c BB60     		str	r3, [r7, #8]
1060:../Libraries/STM32_USB_OTG_Driver/src/usb_core.c ****           USB_OTG_MODIFY_REG32( &pdev->regs.GREGS->GINTMSK, 0, intmsk.d32);  
 2692              		.loc 1 1060 0
 2693 102e 7B68     		ldr	r3, [r7, #4]
 2694 1030 DB68     		ldr	r3, [r3, #12]
 2695 1032 7A68     		ldr	r2, [r7, #4]
 2696 1034 D268     		ldr	r2, [r2, #12]
 2697 1036 9169     		ldr	r1, [r2, #24]
 2698 1038 BA68     		ldr	r2, [r7, #8]
 2699 103a 0A43     		orrs	r2, r2, r1
 2700 103c 9A61     		str	r2, [r3, #24]
1061:../Libraries/STM32_USB_OTG_Driver/src/usb_core.c ****         }
1062:../Libraries/STM32_USB_OTG_Driver/src/usb_core.c ****         break;
 2701              		.loc 1 1062 0
 2702 103e 03E0     		b	.L130
 2703              	.L128:
1063:../Libraries/STM32_USB_OTG_Driver/src/usb_core.c ****         
1064:../Libraries/STM32_USB_OTG_Driver/src/usb_core.c ****       default:
1065:../Libraries/STM32_USB_OTG_Driver/src/usb_core.c ****         break;
 2704              		.loc 1 1065 0
 2705 1040 00BF     		nop
 2706 1042 02E0     		b	.L125
 2707              	.L129:
1049:../Libraries/STM32_USB_OTG_Driver/src/usb_core.c ****         break;
 2708              		.loc 1 1049 0
 2709 1044 00BF     		nop
 2710 1046 00E0     		b	.L125
 2711              	.L130:
1062:../Libraries/STM32_USB_OTG_Driver/src/usb_core.c ****         break;
 2712              		.loc 1 1062 0
 2713 1048 00BF     		nop
 2714              	.L125:
1066:../Libraries/STM32_USB_OTG_Driver/src/usb_core.c ****       }
1067:../Libraries/STM32_USB_OTG_Driver/src/usb_core.c ****       
1068:../Libraries/STM32_USB_OTG_Driver/src/usb_core.c ****       /* Write packet into the Tx FIFO. */
1069:../Libraries/STM32_USB_OTG_Driver/src/usb_core.c ****       USB_OTG_WritePacket(pdev, 
 2715              		.loc 1 1069 0
 2716 104a FB78     		ldrb	r3, [r7, #3]	@ zero_extendqisi2
1070:../Libraries/STM32_USB_OTG_Driver/src/usb_core.c ****                           pdev->host.hc[hc_num].xfer_buff , 
 2717              		.loc 1 1070 0
 2718 104c 7A68     		ldr	r2, [r7, #4]
1069:../Libraries/STM32_USB_OTG_Driver/src/usb_core.c ****       USB_OTG_WritePacket(pdev, 
 2719              		.loc 1 1069 0
 2720 104e 03F11503 		add	r3, r3, #21
 2721 1052 4FEA4313 		lsl	r3, r3, #5
 2722 1056 D318     		adds	r3, r2, r3
 2723 1058 03F58C73 		add	r3, r3, #280
 2724 105c 1968     		ldr	r1, [r3, #0]
1071:../Libraries/STM32_USB_OTG_Driver/src/usb_core.c ****                           hc_num, pdev->host.hc[hc_num].xfer_len);
 2725              		.loc 1 1071 0
 2726 105e FB78     		ldrb	r3, [r7, #3]	@ zero_extendqisi2
 2727 1060 7A68     		ldr	r2, [r7, #4]
 2728 1062 4FEA4313 		lsl	r3, r3, #5
 2729 1066 D318     		adds	r3, r2, r3
 2730 1068 03F56F73 		add	r3, r3, #956
 2731 106c 1B68     		ldr	r3, [r3, #0]
1069:../Libraries/STM32_USB_OTG_Driver/src/usb_core.c ****       USB_OTG_WritePacket(pdev, 
 2732              		.loc 1 1069 0
 2733 106e 9BB2     		uxth	r3, r3
 2734 1070 FA78     		ldrb	r2, [r7, #3]	@ zero_extendqisi2
 2735 1072 7868     		ldr	r0, [r7, #4]
 2736 1074 FFF7FEFF 		bl	USB_OTG_WritePacket
 2737              	.L119:
1072:../Libraries/STM32_USB_OTG_Driver/src/usb_core.c ****     }
1073:../Libraries/STM32_USB_OTG_Driver/src/usb_core.c ****   }
1074:../Libraries/STM32_USB_OTG_Driver/src/usb_core.c ****   return status;
 2738              		.loc 1 1074 0
 2739 1078 97F82D30 		ldrb	r3, [r7, #45]	@ zero_extendqisi2
1075:../Libraries/STM32_USB_OTG_Driver/src/usb_core.c **** }
 2740              		.loc 1 1075 0
 2741 107c 1846     		mov	r0, r3
 2742 107e 07F13007 		add	r7, r7, #48
 2743 1082 BD46     		mov	sp, r7
 2744 1084 80BD     		pop	{r7, pc}
 2745              		.cfi_endproc
 2746              	.LFE135:
 2748 1086 00BF     		.align	2
 2749              		.global	USB_OTG_HC_Halt
 2750              		.thumb
 2751              		.thumb_func
 2753              	USB_OTG_HC_Halt:
 2754              	.LFB136:
1076:../Libraries/STM32_USB_OTG_Driver/src/usb_core.c **** 
1077:../Libraries/STM32_USB_OTG_Driver/src/usb_core.c **** 
1078:../Libraries/STM32_USB_OTG_Driver/src/usb_core.c **** /**
1079:../Libraries/STM32_USB_OTG_Driver/src/usb_core.c **** * @brief  USB_OTG_HC_Halt : Halt channel
1080:../Libraries/STM32_USB_OTG_Driver/src/usb_core.c **** * @param  pdev : Selected device
1081:../Libraries/STM32_USB_OTG_Driver/src/usb_core.c **** * @param  hc_num : channel number
1082:../Libraries/STM32_USB_OTG_Driver/src/usb_core.c **** * @retval USB_OTG_STS : status
1083:../Libraries/STM32_USB_OTG_Driver/src/usb_core.c **** */
1084:../Libraries/STM32_USB_OTG_Driver/src/usb_core.c **** USB_OTG_STS USB_OTG_HC_Halt(USB_OTG_CORE_HANDLE *pdev , uint8_t hc_num)
1085:../Libraries/STM32_USB_OTG_Driver/src/usb_core.c **** {
 2755              		.loc 1 1085 0
 2756              		.cfi_startproc
 2757              		@ args = 0, pretend = 0, frame = 40
 2758              		@ frame_needed = 1, uses_anonymous_args = 0
 2759              		@ link register save eliminated.
 2760 1088 80B4     		push	{r7}
 2761              	.LCFI78:
 2762              		.cfi_def_cfa_offset 4
 2763              		.cfi_offset 7, -4
 2764 108a 8BB0     		sub	sp, sp, #44
 2765              	.LCFI79:
 2766              		.cfi_def_cfa_offset 48
 2767 108c 00AF     		add	r7, sp, #0
 2768              	.LCFI80:
 2769              		.cfi_def_cfa_register 7
 2770 108e 7860     		str	r0, [r7, #4]
 2771 1090 0B46     		mov	r3, r1
 2772 1092 FB70     		strb	r3, [r7, #3]
1086:../Libraries/STM32_USB_OTG_Driver/src/usb_core.c ****   USB_OTG_STS status = USB_OTG_OK;
 2773              		.loc 1 1086 0
 2774 1094 4FF00003 		mov	r3, #0
 2775 1098 87F82730 		strb	r3, [r7, #39]
1087:../Libraries/STM32_USB_OTG_Driver/src/usb_core.c ****   USB_OTG_HNPTXSTS_TypeDef            nptxsts;
1088:../Libraries/STM32_USB_OTG_Driver/src/usb_core.c ****   USB_OTG_HPTXSTS_TypeDef             hptxsts;
1089:../Libraries/STM32_USB_OTG_Driver/src/usb_core.c ****   USB_OTG_HCCHAR_TypeDef              hcchar;
1090:../Libraries/STM32_USB_OTG_Driver/src/usb_core.c ****   
1091:../Libraries/STM32_USB_OTG_Driver/src/usb_core.c ****   nptxsts.d32 = 0;
 2776              		.loc 1 1091 0
 2777 109c 4FF00003 		mov	r3, #0
 2778 10a0 BB61     		str	r3, [r7, #24]
1092:../Libraries/STM32_USB_OTG_Driver/src/usb_core.c ****   hptxsts.d32 = 0;
 2779              		.loc 1 1092 0
 2780 10a2 4FF00003 		mov	r3, #0
 2781 10a6 3B61     		str	r3, [r7, #16]
1093:../Libraries/STM32_USB_OTG_Driver/src/usb_core.c ****   hcchar.d32 = USB_OTG_READ_REG32(&pdev->regs.HC_REGS[hc_num]->HCCHAR);
 2782              		.loc 1 1093 0
 2783 10a8 FB78     		ldrb	r3, [r7, #3]	@ zero_extendqisi2
 2784 10aa 7A68     		ldr	r2, [r7, #4]
 2785 10ac 03F12203 		add	r3, r3, #34
 2786 10b0 4FEA8303 		lsl	r3, r3, #2
 2787 10b4 D318     		adds	r3, r2, r3
 2788 10b6 9B68     		ldr	r3, [r3, #8]
 2789 10b8 1B68     		ldr	r3, [r3, #0]
 2790 10ba FB60     		str	r3, [r7, #12]
1094:../Libraries/STM32_USB_OTG_Driver/src/usb_core.c ****   hcchar.b.chen = 1;
 2791              		.loc 1 1094 0
 2792 10bc FB68     		ldr	r3, [r7, #12]
 2793 10be 43F00043 		orr	r3, r3, #-2147483648
 2794 10c2 FB60     		str	r3, [r7, #12]
1095:../Libraries/STM32_USB_OTG_Driver/src/usb_core.c ****   hcchar.b.chdis = 1;
 2795              		.loc 1 1095 0
 2796 10c4 FB68     		ldr	r3, [r7, #12]
 2797 10c6 43F08043 		orr	r3, r3, #1073741824
 2798 10ca FB60     		str	r3, [r7, #12]
1096:../Libraries/STM32_USB_OTG_Driver/src/usb_core.c ****   
1097:../Libraries/STM32_USB_OTG_Driver/src/usb_core.c ****   /* Check for space in the request queue to issue the halt. */
1098:../Libraries/STM32_USB_OTG_Driver/src/usb_core.c ****   if (hcchar.b.eptype == HCCHAR_CTRL || hcchar.b.eptype == HCCHAR_BULK)
 2799              		.loc 1 1098 0
 2800 10cc FB68     		ldr	r3, [r7, #12]
 2801 10ce C3F38143 		ubfx	r3, r3, #18, #2
 2802 10d2 DBB2     		uxtb	r3, r3
 2803 10d4 002B     		cmp	r3, #0
 2804 10d6 05D0     		beq	.L132
 2805              		.loc 1 1098 0 is_stmt 0 discriminator 1
 2806 10d8 FB68     		ldr	r3, [r7, #12]
 2807 10da C3F38143 		ubfx	r3, r3, #18, #2
 2808 10de DBB2     		uxtb	r3, r3
 2809 10e0 022B     		cmp	r3, #2
 2810 10e2 0BD1     		bne	.L133
 2811              	.L132:
1099:../Libraries/STM32_USB_OTG_Driver/src/usb_core.c ****   {
1100:../Libraries/STM32_USB_OTG_Driver/src/usb_core.c ****     nptxsts.d32 = USB_OTG_READ_REG32(&pdev->regs.GREGS->HNPTXSTS);
 2812              		.loc 1 1100 0 is_stmt 1
 2813 10e4 7B68     		ldr	r3, [r7, #4]
 2814 10e6 DB68     		ldr	r3, [r3, #12]
 2815 10e8 DB6A     		ldr	r3, [r3, #44]
 2816 10ea BB61     		str	r3, [r7, #24]
1101:../Libraries/STM32_USB_OTG_Driver/src/usb_core.c ****     if (nptxsts.b.nptxqspcavail == 0)
 2817              		.loc 1 1101 0
 2818 10ec BB7E     		ldrb	r3, [r7, #26]	@ zero_extendqisi2
 2819 10ee 002B     		cmp	r3, #0
 2820 10f0 0FD1     		bne	.L135
1102:../Libraries/STM32_USB_OTG_Driver/src/usb_core.c ****     {
1103:../Libraries/STM32_USB_OTG_Driver/src/usb_core.c ****       hcchar.b.chen = 0;
 2821              		.loc 1 1103 0
 2822 10f2 FB68     		ldr	r3, [r7, #12]
 2823 10f4 6FF3DF73 		bfc	r3, #31, #1
 2824 10f8 FB60     		str	r3, [r7, #12]
1101:../Libraries/STM32_USB_OTG_Driver/src/usb_core.c ****     if (nptxsts.b.nptxqspcavail == 0)
 2825              		.loc 1 1101 0
 2826 10fa 0AE0     		b	.L135
 2827              	.L133:
1104:../Libraries/STM32_USB_OTG_Driver/src/usb_core.c ****     }
1105:../Libraries/STM32_USB_OTG_Driver/src/usb_core.c ****   }
1106:../Libraries/STM32_USB_OTG_Driver/src/usb_core.c ****   else
1107:../Libraries/STM32_USB_OTG_Driver/src/usb_core.c ****   {
1108:../Libraries/STM32_USB_OTG_Driver/src/usb_core.c ****     hptxsts.d32 = USB_OTG_READ_REG32(&pdev->regs.HREGS->HPTXSTS);
 2828              		.loc 1 1108 0
 2829 10fc 7B68     		ldr	r3, [r7, #4]
 2830 10fe 5B69     		ldr	r3, [r3, #20]
 2831 1100 1B69     		ldr	r3, [r3, #16]
 2832 1102 3B61     		str	r3, [r7, #16]
1109:../Libraries/STM32_USB_OTG_Driver/src/usb_core.c ****     if (hptxsts.b.ptxqspcavail == 0)
 2833              		.loc 1 1109 0
 2834 1104 BB7C     		ldrb	r3, [r7, #18]	@ zero_extendqisi2
 2835 1106 002B     		cmp	r3, #0
 2836 1108 03D1     		bne	.L135
1110:../Libraries/STM32_USB_OTG_Driver/src/usb_core.c ****     {
1111:../Libraries/STM32_USB_OTG_Driver/src/usb_core.c ****       hcchar.b.chen = 0;
 2837              		.loc 1 1111 0
 2838 110a FB68     		ldr	r3, [r7, #12]
 2839 110c 6FF3DF73 		bfc	r3, #31, #1
 2840 1110 FB60     		str	r3, [r7, #12]
 2841              	.L135:
1112:../Libraries/STM32_USB_OTG_Driver/src/usb_core.c ****     }
1113:../Libraries/STM32_USB_OTG_Driver/src/usb_core.c ****   }
1114:../Libraries/STM32_USB_OTG_Driver/src/usb_core.c ****   USB_OTG_WRITE_REG32(&pdev->regs.HC_REGS[hc_num]->HCCHAR, hcchar.d32);
 2842              		.loc 1 1114 0
 2843 1112 FB78     		ldrb	r3, [r7, #3]	@ zero_extendqisi2
 2844 1114 7A68     		ldr	r2, [r7, #4]
 2845 1116 03F12203 		add	r3, r3, #34
 2846 111a 4FEA8303 		lsl	r3, r3, #2
 2847 111e D318     		adds	r3, r2, r3
 2848 1120 9B68     		ldr	r3, [r3, #8]
 2849 1122 FA68     		ldr	r2, [r7, #12]
 2850 1124 1A60     		str	r2, [r3, #0]
1115:../Libraries/STM32_USB_OTG_Driver/src/usb_core.c ****   return status;
 2851              		.loc 1 1115 0
 2852 1126 97F82730 		ldrb	r3, [r7, #39]	@ zero_extendqisi2
1116:../Libraries/STM32_USB_OTG_Driver/src/usb_core.c **** }
 2853              		.loc 1 1116 0
 2854 112a 1846     		mov	r0, r3
 2855 112c 07F12C07 		add	r7, r7, #44
 2856 1130 BD46     		mov	sp, r7
 2857 1132 80BC     		pop	{r7}
 2858 1134 7047     		bx	lr
 2859              		.cfi_endproc
 2860              	.LFE136:
 2862 1136 00BF     		.align	2
 2863              		.global	USB_OTG_HC_DoPing
 2864              		.thumb
 2865              		.thumb_func
 2867              	USB_OTG_HC_DoPing:
 2868              	.LFB137:
1117:../Libraries/STM32_USB_OTG_Driver/src/usb_core.c **** 
1118:../Libraries/STM32_USB_OTG_Driver/src/usb_core.c **** /**
1119:../Libraries/STM32_USB_OTG_Driver/src/usb_core.c **** * @brief  Issue a ping token
1120:../Libraries/STM32_USB_OTG_Driver/src/usb_core.c **** * @param  None
1121:../Libraries/STM32_USB_OTG_Driver/src/usb_core.c **** * @retval : None
1122:../Libraries/STM32_USB_OTG_Driver/src/usb_core.c **** */
1123:../Libraries/STM32_USB_OTG_Driver/src/usb_core.c **** USB_OTG_STS USB_OTG_HC_DoPing(USB_OTG_CORE_HANDLE *pdev , uint8_t hc_num)
1124:../Libraries/STM32_USB_OTG_Driver/src/usb_core.c **** {
 2869              		.loc 1 1124 0
 2870              		.cfi_startproc
 2871              		@ args = 0, pretend = 0, frame = 24
 2872              		@ frame_needed = 1, uses_anonymous_args = 0
 2873              		@ link register save eliminated.
 2874 1138 80B4     		push	{r7}
 2875              	.LCFI81:
 2876              		.cfi_def_cfa_offset 4
 2877              		.cfi_offset 7, -4
 2878 113a 87B0     		sub	sp, sp, #28
 2879              	.LCFI82:
 2880              		.cfi_def_cfa_offset 32
 2881 113c 00AF     		add	r7, sp, #0
 2882              	.LCFI83:
 2883              		.cfi_def_cfa_register 7
 2884 113e 7860     		str	r0, [r7, #4]
 2885 1140 0B46     		mov	r3, r1
 2886 1142 FB70     		strb	r3, [r7, #3]
1125:../Libraries/STM32_USB_OTG_Driver/src/usb_core.c ****   USB_OTG_STS               status = USB_OTG_OK;
 2887              		.loc 1 1125 0
 2888 1144 4FF00003 		mov	r3, #0
 2889 1148 FB75     		strb	r3, [r7, #23]
1126:../Libraries/STM32_USB_OTG_Driver/src/usb_core.c ****   USB_OTG_HCCHAR_TypeDef    hcchar;
1127:../Libraries/STM32_USB_OTG_Driver/src/usb_core.c ****   USB_OTG_HCTSIZn_TypeDef   hctsiz;  
1128:../Libraries/STM32_USB_OTG_Driver/src/usb_core.c ****   
1129:../Libraries/STM32_USB_OTG_Driver/src/usb_core.c ****   hctsiz.d32 = 0;
 2890              		.loc 1 1129 0
 2891 114a 4FF00003 		mov	r3, #0
 2892 114e FB60     		str	r3, [r7, #12]
1130:../Libraries/STM32_USB_OTG_Driver/src/usb_core.c ****   hctsiz.b.dopng = 1;
 2893              		.loc 1 1130 0
 2894 1150 FB68     		ldr	r3, [r7, #12]
 2895 1152 43F00043 		orr	r3, r3, #-2147483648
 2896 1156 FB60     		str	r3, [r7, #12]
1131:../Libraries/STM32_USB_OTG_Driver/src/usb_core.c ****   hctsiz.b.pktcnt = 1;
 2897              		.loc 1 1131 0
 2898 1158 FB68     		ldr	r3, [r7, #12]
 2899 115a 4FF00102 		mov	r2, #1
 2900 115e 62F3DC43 		bfi	r3, r2, #19, #10
 2901 1162 FB60     		str	r3, [r7, #12]
1132:../Libraries/STM32_USB_OTG_Driver/src/usb_core.c ****   USB_OTG_WRITE_REG32(&pdev->regs.HC_REGS[hc_num]->HCTSIZ, hctsiz.d32);
 2902              		.loc 1 1132 0
 2903 1164 FB78     		ldrb	r3, [r7, #3]	@ zero_extendqisi2
 2904 1166 7A68     		ldr	r2, [r7, #4]
 2905 1168 03F12203 		add	r3, r3, #34
 2906 116c 4FEA8303 		lsl	r3, r3, #2
 2907 1170 D318     		adds	r3, r2, r3
 2908 1172 9B68     		ldr	r3, [r3, #8]
 2909 1174 FA68     		ldr	r2, [r7, #12]
 2910 1176 1A61     		str	r2, [r3, #16]
1133:../Libraries/STM32_USB_OTG_Driver/src/usb_core.c ****   
1134:../Libraries/STM32_USB_OTG_Driver/src/usb_core.c ****   hcchar.d32 = USB_OTG_READ_REG32(&pdev->regs.HC_REGS[hc_num]->HCCHAR);
 2911              		.loc 1 1134 0
 2912 1178 FB78     		ldrb	r3, [r7, #3]	@ zero_extendqisi2
 2913 117a 7A68     		ldr	r2, [r7, #4]
 2914 117c 03F12203 		add	r3, r3, #34
 2915 1180 4FEA8303 		lsl	r3, r3, #2
 2916 1184 D318     		adds	r3, r2, r3
 2917 1186 9B68     		ldr	r3, [r3, #8]
 2918 1188 1B68     		ldr	r3, [r3, #0]
 2919 118a 3B61     		str	r3, [r7, #16]
1135:../Libraries/STM32_USB_OTG_Driver/src/usb_core.c ****   hcchar.b.chen = 1;
 2920              		.loc 1 1135 0
 2921 118c 3B69     		ldr	r3, [r7, #16]
 2922 118e 43F00043 		orr	r3, r3, #-2147483648
 2923 1192 3B61     		str	r3, [r7, #16]
1136:../Libraries/STM32_USB_OTG_Driver/src/usb_core.c ****   hcchar.b.chdis = 0;
 2924              		.loc 1 1136 0
 2925 1194 3B69     		ldr	r3, [r7, #16]
 2926 1196 6FF39E73 		bfc	r3, #30, #1
 2927 119a 3B61     		str	r3, [r7, #16]
1137:../Libraries/STM32_USB_OTG_Driver/src/usb_core.c ****   USB_OTG_WRITE_REG32(&pdev->regs.HC_REGS[hc_num]->HCCHAR, hcchar.d32);
 2928              		.loc 1 1137 0
 2929 119c FB78     		ldrb	r3, [r7, #3]	@ zero_extendqisi2
 2930 119e 7A68     		ldr	r2, [r7, #4]
 2931 11a0 03F12203 		add	r3, r3, #34
 2932 11a4 4FEA8303 		lsl	r3, r3, #2
 2933 11a8 D318     		adds	r3, r2, r3
 2934 11aa 9B68     		ldr	r3, [r3, #8]
 2935 11ac 3A69     		ldr	r2, [r7, #16]
 2936 11ae 1A60     		str	r2, [r3, #0]
1138:../Libraries/STM32_USB_OTG_Driver/src/usb_core.c ****   return status;  
 2937              		.loc 1 1138 0
 2938 11b0 FB7D     		ldrb	r3, [r7, #23]	@ zero_extendqisi2
1139:../Libraries/STM32_USB_OTG_Driver/src/usb_core.c **** }
 2939              		.loc 1 1139 0
 2940 11b2 1846     		mov	r0, r3
 2941 11b4 07F11C07 		add	r7, r7, #28
 2942 11b8 BD46     		mov	sp, r7
 2943 11ba 80BC     		pop	{r7}
 2944 11bc 7047     		bx	lr
 2945              		.cfi_endproc
 2946              	.LFE137:
 2948 11be 00BF     		.align	2
 2949              		.global	USB_OTG_StopHost
 2950              		.thumb
 2951              		.thumb_func
 2953              	USB_OTG_StopHost:
 2954              	.LFB138:
1140:../Libraries/STM32_USB_OTG_Driver/src/usb_core.c **** 
1141:../Libraries/STM32_USB_OTG_Driver/src/usb_core.c **** /**
1142:../Libraries/STM32_USB_OTG_Driver/src/usb_core.c **** * @brief  Stop the device and clean up fifo's
1143:../Libraries/STM32_USB_OTG_Driver/src/usb_core.c **** * @param  None
1144:../Libraries/STM32_USB_OTG_Driver/src/usb_core.c **** * @retval : None
1145:../Libraries/STM32_USB_OTG_Driver/src/usb_core.c **** */
1146:../Libraries/STM32_USB_OTG_Driver/src/usb_core.c **** void USB_OTG_StopHost(USB_OTG_CORE_HANDLE *pdev)
1147:../Libraries/STM32_USB_OTG_Driver/src/usb_core.c **** {
 2955              		.loc 1 1147 0
 2956              		.cfi_startproc
 2957              		@ args = 0, pretend = 0, frame = 16
 2958              		@ frame_needed = 1, uses_anonymous_args = 0
 2959 11c0 80B5     		push	{r7, lr}
 2960              	.LCFI84:
 2961              		.cfi_def_cfa_offset 8
 2962              		.cfi_offset 7, -8
 2963              		.cfi_offset 14, -4
 2964 11c2 84B0     		sub	sp, sp, #16
 2965              	.LCFI85:
 2966              		.cfi_def_cfa_offset 24
 2967 11c4 00AF     		add	r7, sp, #0
 2968              	.LCFI86:
 2969              		.cfi_def_cfa_register 7
 2970 11c6 7860     		str	r0, [r7, #4]
1148:../Libraries/STM32_USB_OTG_Driver/src/usb_core.c ****   USB_OTG_HCCHAR_TypeDef  hcchar;
1149:../Libraries/STM32_USB_OTG_Driver/src/usb_core.c ****   uint32_t                i;
1150:../Libraries/STM32_USB_OTG_Driver/src/usb_core.c ****   
1151:../Libraries/STM32_USB_OTG_Driver/src/usb_core.c ****   USB_OTG_WRITE_REG32(&pdev->regs.HREGS->HAINTMSK , 0);
 2971              		.loc 1 1151 0
 2972 11c8 7B68     		ldr	r3, [r7, #4]
 2973 11ca 5B69     		ldr	r3, [r3, #20]
 2974 11cc 4FF00002 		mov	r2, #0
 2975 11d0 9A61     		str	r2, [r3, #24]
1152:../Libraries/STM32_USB_OTG_Driver/src/usb_core.c ****   USB_OTG_WRITE_REG32(&pdev->regs.HREGS->HAINT,      0xFFFFFFFF);
 2976              		.loc 1 1152 0
 2977 11d2 7B68     		ldr	r3, [r7, #4]
 2978 11d4 5B69     		ldr	r3, [r3, #20]
 2979 11d6 4FF0FF32 		mov	r2, #-1
 2980 11da 5A61     		str	r2, [r3, #20]
1153:../Libraries/STM32_USB_OTG_Driver/src/usb_core.c ****   /* Flush out any leftover queued requests. */
1154:../Libraries/STM32_USB_OTG_Driver/src/usb_core.c ****   
1155:../Libraries/STM32_USB_OTG_Driver/src/usb_core.c ****   for (i = 0; i < pdev->cfg.host_channels; i++)
 2981              		.loc 1 1155 0
 2982 11dc 4FF00003 		mov	r3, #0
 2983 11e0 FB60     		str	r3, [r7, #12]
 2984 11e2 23E0     		b	.L140
 2985              	.L141:
1156:../Libraries/STM32_USB_OTG_Driver/src/usb_core.c ****   {
1157:../Libraries/STM32_USB_OTG_Driver/src/usb_core.c ****     hcchar.d32 = USB_OTG_READ_REG32(&pdev->regs.HC_REGS[i]->HCCHAR);
 2986              		.loc 1 1157 0 discriminator 2
 2987 11e4 7A68     		ldr	r2, [r7, #4]
 2988 11e6 FB68     		ldr	r3, [r7, #12]
 2989 11e8 03F12203 		add	r3, r3, #34
 2990 11ec 4FEA8303 		lsl	r3, r3, #2
 2991 11f0 D318     		adds	r3, r2, r3
 2992 11f2 9B68     		ldr	r3, [r3, #8]
 2993 11f4 1B68     		ldr	r3, [r3, #0]
 2994 11f6 BB60     		str	r3, [r7, #8]
1158:../Libraries/STM32_USB_OTG_Driver/src/usb_core.c ****     hcchar.b.chen = 0;
 2995              		.loc 1 1158 0 discriminator 2
 2996 11f8 BB68     		ldr	r3, [r7, #8]
 2997 11fa 6FF3DF73 		bfc	r3, #31, #1
 2998 11fe BB60     		str	r3, [r7, #8]
1159:../Libraries/STM32_USB_OTG_Driver/src/usb_core.c ****     hcchar.b.chdis = 1;
 2999              		.loc 1 1159 0 discriminator 2
 3000 1200 BB68     		ldr	r3, [r7, #8]
 3001 1202 43F08043 		orr	r3, r3, #1073741824
 3002 1206 BB60     		str	r3, [r7, #8]
1160:../Libraries/STM32_USB_OTG_Driver/src/usb_core.c ****     hcchar.b.epdir = 0;
 3003              		.loc 1 1160 0 discriminator 2
 3004 1208 BB68     		ldr	r3, [r7, #8]
 3005 120a 6FF3CF33 		bfc	r3, #15, #1
 3006 120e BB60     		str	r3, [r7, #8]
1161:../Libraries/STM32_USB_OTG_Driver/src/usb_core.c ****     USB_OTG_WRITE_REG32(&pdev->regs.HC_REGS[i]->HCCHAR, hcchar.d32);
 3007              		.loc 1 1161 0 discriminator 2
 3008 1210 7A68     		ldr	r2, [r7, #4]
 3009 1212 FB68     		ldr	r3, [r7, #12]
 3010 1214 03F12203 		add	r3, r3, #34
 3011 1218 4FEA8303 		lsl	r3, r3, #2
 3012 121c D318     		adds	r3, r2, r3
 3013 121e 9B68     		ldr	r3, [r3, #8]
 3014 1220 BA68     		ldr	r2, [r7, #8]
 3015 1222 1A60     		str	r2, [r3, #0]
1155:../Libraries/STM32_USB_OTG_Driver/src/usb_core.c ****   for (i = 0; i < pdev->cfg.host_channels; i++)
 3016              		.loc 1 1155 0 discriminator 2
 3017 1224 FB68     		ldr	r3, [r7, #12]
 3018 1226 03F10103 		add	r3, r3, #1
 3019 122a FB60     		str	r3, [r7, #12]
 3020              	.L140:
1155:../Libraries/STM32_USB_OTG_Driver/src/usb_core.c ****   for (i = 0; i < pdev->cfg.host_channels; i++)
 3021              		.loc 1 1155 0 is_stmt 0 discriminator 1
 3022 122c 7B68     		ldr	r3, [r7, #4]
 3023 122e 1B78     		ldrb	r3, [r3, #0]	@ zero_extendqisi2
 3024 1230 1A46     		mov	r2, r3
 3025 1232 FB68     		ldr	r3, [r7, #12]
 3026 1234 9A42     		cmp	r2, r3
 3027 1236 D5D8     		bhi	.L141
1162:../Libraries/STM32_USB_OTG_Driver/src/usb_core.c ****   }
1163:../Libraries/STM32_USB_OTG_Driver/src/usb_core.c ****   
1164:../Libraries/STM32_USB_OTG_Driver/src/usb_core.c ****   /* Flush the FIFO */
1165:../Libraries/STM32_USB_OTG_Driver/src/usb_core.c ****   USB_OTG_FlushRxFifo(pdev);
 3028              		.loc 1 1165 0 is_stmt 1
 3029 1238 7868     		ldr	r0, [r7, #4]
 3030 123a FFF7FEFF 		bl	USB_OTG_FlushRxFifo
1166:../Libraries/STM32_USB_OTG_Driver/src/usb_core.c ****   USB_OTG_FlushTxFifo(pdev ,  0x10 );  
 3031              		.loc 1 1166 0
 3032 123e 7868     		ldr	r0, [r7, #4]
 3033 1240 4FF01001 		mov	r1, #16
 3034 1244 FFF7FEFF 		bl	USB_OTG_FlushTxFifo
1167:../Libraries/STM32_USB_OTG_Driver/src/usb_core.c **** }
 3035              		.loc 1 1167 0
 3036 1248 07F11007 		add	r7, r7, #16
 3037 124c BD46     		mov	sp, r7
 3038 124e 80BD     		pop	{r7, pc}
 3039              		.cfi_endproc
 3040              	.LFE138:
 3042              	.Letext0:
 3043              		.file 2 "/opt/CodeSourcery/bin/../lib/gcc/arm-none-eabi/4.7.2/../../../../arm-none-eabi/include/st
 3044              		.file 3 "/home/dev/arm/stm32/stm32f4/stm32f4-discovery/apps/template/Libraries/STM32_USB_OTG_Drive
 3045              		.file 4 "/home/dev/arm/stm32/stm32f4/stm32f4-discovery/apps/template/Libraries/STM32_USB_OTG_Drive
 3046              		.file 5 "/home/dev/arm/stm32/stm32f4/stm32f4-discovery/apps/template/Libraries/STM32_USB_OTG_Drive
 3047              		.file 6 "/home/dev/arm/stm32/stm32f4/stm32f4-discovery/apps/template/Libraries/CMSIS/Include/core_